(dp1
S'files'
p2
(dp3
S'_usr_local_lib_python2_7_dist-packages_django_core_files_temp'
p4
(dp5
S'index'
p6
(dp7
S'html_filename'
p8
S'_usr_local_lib_python2_7_dist-packages_django_core_files_temp.html'
p9
sS'name'
p10
S'/usr/local/lib/python2.7/dist-packages/django/core/files/temp'
p11
sS'nums'
p12
ccopy_reg
_reconstructor
p13
(ccoverage.results
Numbers
p14
c__builtin__
object
p15
NtRp16
(dp17
S'n_files'
p18
I1
sS'n_branches'
p19
I0
sS'n_statements'
p20
I35
sS'n_excluded'
p21
I0
sS'n_partial_branches'
p22
I0
sS'n_missing'
p23
I28
sS'n_missing_branches'
p24
I0
sbssS'hash'
p25
S'v\x82\x8b\xae\x03\t\xaa;\x0c\xa0\x1e\xa0.\xb9\xac='
p26
ssS'_usr_local_lib_python2_7_dist-packages_django_core_files_utils'
p27
(dp28
g6
(dp29
g8
S'_usr_local_lib_python2_7_dist-packages_django_core_files_utils.html'
p30
sg10
S'/usr/local/lib/python2.7/dist-packages/django/core/files/utils'
p31
sg12
g13
(g14
g15
NtRp32
(dp33
g18
I1
sg19
I0
sg20
I19
sg21
I0
sg22
I0
sg23
I1
sg24
I0
sbssg25
S'\x91@)\xe4(\x81\xd6\xb8\x9b\x16\xc4\xeeh\x11e\xff'
p34
ssS'_usr_local_lib_python2_7_dist-packages_django_contrib_admin___init__'
p35
(dp36
g6
(dp37
g8
S'_usr_local_lib_python2_7_dist-packages_django_contrib_admin___init__.html'
p38
sg10
S'/usr/local/lib/python2.7/dist-packages/django/contrib/admin/__init__'
p39
sg12
g13
(g14
g15
NtRp40
(dp41
g18
I1
sg19
I0
sg20
I10
sg21
I0
sg22
I0
sg23
I0
sg24
I0
sbssg25
S'\x99"\xce1\xc2\x1f|8d,hO\x9c\xa8\'z'
p42
ssS'_usr_local_lib_python2_7_dist-packages_django_contrib_sites___init__'
p43
(dp44
g6
(dp45
g8
S'_usr_local_lib_python2_7_dist-packages_django_contrib_sites___init__.html'
p46
sg10
S'/usr/local/lib/python2.7/dist-packages/django/contrib/sites/__init__'
p47
sg12
g13
(g14
g15
NtRp48
(dp49
g18
I1
sg19
I0
sg20
I1
sg21
I0
sg22
I0
sg23
I0
sg24
I0
sbssg25
S'\x93\xb7\xc1\xce{;\x9a\xad\x93U\x0cm\xf2\xbc\xd0v'
p50
ssS'_usr_local_lib_python2_7_dist-packages_django_utils_html'
p51
(dp52
g6
(dp53
g8
S'_usr_local_lib_python2_7_dist-packages_django_utils_html.html'
p54
sg10
S'/usr/local/lib/python2.7/dist-packages/django/utils/html'
p55
sg12
g13
(g14
g15
NtRp56
(dp57
g18
I1
sg19
I0
sg20
I200
sg21
I0
sg22
I0
sg23
I137
sg24
I0
sbssg25
S"\xb4'\x8dl \xa6i\x1d\xee\xb4\x12\xfak\xa1\x0b\xce"
p58
ssS'_usr_local_lib_python2_7_dist-packages_django_views_defaults'
p59
(dp60
g6
(dp61
g8
S'_usr_local_lib_python2_7_dist-packages_django_views_defaults.html'
p62
sg10
S'/usr/local/lib/python2.7/dist-packages/django/views/defaults'
p63
sg12
g13
(g14
g15
NtRp64
(dp65
g18
I1
sg19
I0
sg20
I36
sg21
I0
sg22
I0
sg23
I21
sg24
I0
sbssg25
S'y\xc9>H\x14\x99\x1e\x08\x0bL\\\xe4\xa2w\xce|'
p66
ssS'_usr_local_lib_python2_7_dist-packages_django_core_management_base'
p67
(dp68
g6
(dp69
S'html_filename'
p70
S'_usr_local_lib_python2_7_dist-packages_django_core_management_base.html'
p71
sS'name'
p72
S'/usr/local/lib/python2.7/dist-packages/django/core/management/base'
p73
sS'nums'
p74
g13
(g14
g15
NtRp75
(dp76
g18
I1
sg19
I0
sg20
I250
sg21
I0
sg22
I0
sg23
I118
sg24
I0
sbssg25
S'\xe4#w\x90\xdd\x80\xf7\x82\xc5\x81\x04adr-K'
p77
ssS'_usr_local_lib_python2_7_dist-packages_django_template_backends_django'
p78
(dp79
g6
(dp80
g70
S'_usr_local_lib_python2_7_dist-packages_django_template_backends_django.html'
p81
sg72
S'/usr/local/lib/python2.7/dist-packages/django/template/backends/django'
p82
sg74
g13
(g14
g15
NtRp83
(dp84
g18
I1
sg19
I0
sg20
I34
sg21
I0
sg22
I0
sg23
I12
sg24
I0
sbssg25
S'\x05b\xe0\xa6\xb6\xa6b#\xcb\xc8\xd4\x94\xf9G\xf6+'
p85
ssS'_usr_local_lib_python2_7_dist-packages_django_forms_models'
p86
(dp87
g6
(dp88
g8
S'_usr_local_lib_python2_7_dist-packages_django_forms_models.html'
p89
sg10
S'/usr/local/lib/python2.7/dist-packages/django/forms/models'
p90
sg12
g13
(g14
g15
NtRp91
(dp92
g18
I1
sg19
I0
sg20
I672
sg21
I0
sg22
I0
sg23
I497
sg24
I0
sbssg25
S'{\xbd\xa2\xe6b\xb7wm\x88W\x8c\x8a[\x80\xf8Y'
p93
ssS'_usr_local_lib_python2_7_dist-packages_django_contrib_auth_context_processors'
p94
(dp95
g6
(dp96
g8
S'_usr_local_lib_python2_7_dist-packages_django_contrib_auth_context_processors.html'
p97
sg10
S'/usr/local/lib/python2.7/dist-packages/django/contrib/auth/context_processors'
p98
sg12
g13
(g14
g15
NtRp99
(dp100
g18
I1
sg19
I0
sg20
I31
sg21
I0
sg22
I0
sg23
I14
sg24
I0
sbssg25
S'\xca1\xd0\xf1\xc1\x03\xc0q\x08\x00\xae\xa18<\xdc\x90'
p101
ssS'_usr_local_lib_python2_7_dist-packages_django_contrib_auth_migrations_0004_alter_user_username_opts'
p102
(dp103
g6
(dp104
g8
S'_usr_local_lib_python2_7_dist-packages_django_contrib_auth_migrations_0004_alter_user_username_opts.html'
p105
sg10
S'/usr/local/lib/python2.7/dist-packages/django/contrib/auth/migrations/0004_alter_user_username_opts'
p106
sg12
g13
(g14
g15
NtRp107
(dp108
g18
I1
sg19
I0
sg20
I6
sg21
I0
sg22
I0
sg23
I0
sg24
I0
sbssg25
S'\xe0t\xb9B3\xc6\xd3G\x05\xc3\xcd\xe11\xec\x82n'
p109
ssS'_usr_local_lib_python2_7_dist-packages_django_core_handlers_base'
p110
(dp111
g6
(dp112
g70
S'_usr_local_lib_python2_7_dist-packages_django_core_handlers_base.html'
p113
sg72
S'/usr/local/lib/python2.7/dist-packages/django/core/handlers/base'
p114
sg74
g13
(g14
g15
NtRp115
(dp116
g18
I1
sg19
I0
sg20
I155
sg21
I0
sg22
I0
sg23
I72
sg24
I0
sbssg25
S"\xc7\xc0\xb0f\x8b\xe8:\x86\xfb\x1fu'\xfae\x0b\xef"
p117
ssS'_usr_local_lib_python2_7_dist-packages_django_core_signing'
p118
(dp119
g6
(dp120
g8
S'_usr_local_lib_python2_7_dist-packages_django_core_signing.html'
p121
sg10
S'/usr/local/lib/python2.7/dist-packages/django/core/signing'
p122
sg12
g13
(g14
g15
NtRp123
(dp124
g18
I1
sg19
I0
sg20
I90
sg21
I0
sg22
I0
sg23
I57
sg24
I0
sbssg25
S"\x1c\xfc_\xdcGZ\xa7\x80\x90\x0e\xc6\xe6`T'\x17"
p125
ssS'_usr_local_lib_python2_7_dist-packages_django_utils_lru_cache'
p126
(dp127
g6
(dp128
g8
S'_usr_local_lib_python2_7_dist-packages_django_utils_lru_cache.html'
p129
sg10
S'/usr/local/lib/python2.7/dist-packages/django/utils/lru_cache'
p130
sg12
g13
(g14
g15
NtRp131
(dp132
g18
I1
sg19
I0
sg20
I106
sg21
I0
sg22
I0
sg23
I19
sg24
I0
sbssg25
S'\xae\x8a\x0fm\x84l\xa6\x015;\xa4D\xfb\x93\x87\x80'
p133
ssS'_usr_local_lib_python2_7_dist-packages_django_utils_version'
p134
(dp135
g6
(dp136
g8
S'_usr_local_lib_python2_7_dist-packages_django_utils_version.html'
p137
sg10
S'/usr/local/lib/python2.7/dist-packages/django/utils/version'
p138
sg12
g13
(g14
g15
NtRp139
(dp140
g18
I1
sg19
I0
sg20
I42
sg21
I0
sg22
I0
sg23
I17
sg24
I0
sbssg25
S'Y\xe6\xe2\x14QX\xfe\xd6\xd6\x92\xb3Jv|\xaf\xa0'
p141
ssS'_usr_local_lib_python2_7_dist-packages_django_db_backends_base_client'
p142
(dp143
g6
(dp144
g8
S'_usr_local_lib_python2_7_dist-packages_django_db_backends_base_client.html'
p145
sg10
S'/usr/local/lib/python2.7/dist-packages/django/db/backends/base/client'
p146
sg12
g13
(g14
g15
NtRp147
(dp148
g18
I1
sg19
I0
sg20
I6
sg21
I0
sg22
I0
sg23
I1
sg24
I0
sbssg25
S'\xa0\x98\x02\x83\xe4p\x9ckH\xec;\x10\xbfk\x0eM'
p149
ssS'_usr_local_lib_python2_7_dist-packages_django_contrib_auth_backends'
p150
(dp151
g6
(dp152
g8
S'_usr_local_lib_python2_7_dist-packages_django_contrib_auth_backends.html'
p153
sg10
S'/usr/local/lib/python2.7/dist-packages/django/contrib/auth/backends'
p154
sg12
g13
(g14
g15
NtRp155
(dp156
g18
I1
sg19
I0
sg20
I80
sg21
I0
sg22
I0
sg23
I61
sg24
I0
sbssg25
S'\n\xe4\x9e\xf6\x1c\x99\xe9\xec\x86Ia4s\xc4\xcf\xc5'
p157
ssS'_usr_local_lib_python2_7_dist-packages_django_db_migrations_questioner'
p158
(dp159
g6
(dp160
g8
S'_usr_local_lib_python2_7_dist-packages_django_db_migrations_questioner.html'
p161
sg10
S'/usr/local/lib/python2.7/dist-packages/django/db/migrations/questioner'
p162
sg12
g13
(g14
g15
NtRp163
(dp164
g18
I1
sg19
I0
sg20
I103
sg21
I0
sg22
I0
sg23
I77
sg24
I0
sbssg25
S'1\xd8[z\x12\xce\xce8i\xf0X\t\x87\xaa\xcd\x8d'
p165
ssS'_usr_local_lib_python2_7_dist-packages_django_utils_module_loading'
p166
(dp167
g6
(dp168
g8
S'_usr_local_lib_python2_7_dist-packages_django_utils_module_loading.html'
p169
sg10
S'/usr/local/lib/python2.7/dist-packages/django/utils/module_loading'
p170
sg12
g13
(g14
g15
NtRp171
(dp172
g18
I1
sg19
I0
sg20
I101
sg21
I0
sg22
I0
sg23
I36
sg24
I0
sbssg25
S'\xf1\xb3y\xd7\x18\xd4\x15\x13Z\xdd\xd6^D\xa8e\xde'
p173
ssS'_usr_local_lib_python2_7_dist-packages_django_contrib_sessions_migrations___init__'
p174
(dp175
g6
(dp176
g8
S'_usr_local_lib_python2_7_dist-packages_django_contrib_sessions_migrations___init__.html'
p177
sg10
S'/usr/local/lib/python2.7/dist-packages/django/contrib/sessions/migrations/__init__'
p178
sg12
g13
(g14
g15
NtRp179
(dp180
g18
I1
sg19
I0
sg20
I0
sg21
I0
sg22
I0
sg23
I0
sg24
I0
sbssg25
S'\xb0\xc8pN\xaf>\xa0\xbaz\x144\xe0A9\xb8?'
p181
ssS'_usr_local_lib_python2_7_dist-packages_pytz_lazy'
p182
(dp183
g6
(dp184
g8
S'_usr_local_lib_python2_7_dist-packages_pytz_lazy.html'
p185
sg10
S'/usr/local/lib/python2.7/dist-packages/pytz/lazy'
p186
sg12
g13
(g14
g15
NtRp187
(dp188
g18
I1
sg19
I0
sg20
I97
sg21
I0
sg22
I0
sg23
I56
sg24
I0
sbssg25
S'\x17;\xff\x132w\x14a\xcd\x85RM&\xee\x0c\xfd'
p189
ssS'_usr_local_lib_python2_7_dist-packages_django_contrib_contenttypes___init__'
p190
(dp191
g6
(dp192
g8
S'_usr_local_lib_python2_7_dist-packages_django_contrib_contenttypes___init__.html'
p193
sg10
S'/usr/local/lib/python2.7/dist-packages/django/contrib/contenttypes/__init__'
p194
sg12
g13
(g14
g15
NtRp195
(dp196
g18
I1
sg19
I0
sg20
I1
sg21
I0
sg22
I0
sg23
I0
sg24
I0
sbssg25
S'<\x90\xfeqB1~\xf9\x95\xabK \x85\xa712'
p197
ssS'_usr_local_lib_python2_7_dist-packages_django_utils_decorators'
p198
(dp199
g6
(dp200
g70
S'_usr_local_lib_python2_7_dist-packages_django_utils_decorators.html'
p201
sg72
S'/usr/local/lib/python2.7/dist-packages/django/utils/decorators'
p202
sg74
g13
(g14
g15
NtRp203
(dp204
g18
I1
sg19
I0
sg20
I75
sg21
I0
sg22
I0
sg23
I37
sg24
I0
sbssg25
S'ng\x81\x9dtK\xcb\xaf\x1c\xdb\xb9W7eO\xc8'
p205
ssS'_usr_local_lib_python2_7_dist-packages_django_template_loaders_locmem'
p206
(dp207
g6
(dp208
g8
S'_usr_local_lib_python2_7_dist-packages_django_template_loaders_locmem.html'
p209
sg10
S'/usr/local/lib/python2.7/dist-packages/django/template/loaders/locmem'
p210
sg12
g13
(g14
g15
NtRp211
(dp212
g18
I1
sg19
I0
sg20
I12
sg21
I0
sg22
I0
sg23
I6
sg24
I0
sbssg25
S'\xc4\xb1\x08*\x9ftj\x16\xa6 \x97X\xe4\xb7!d'
p213
ssS'_usr_local_lib_python2_7_dist-packages_django_core_checks_messages'
p214
(dp215
g6
(dp216
g8
S'_usr_local_lib_python2_7_dist-packages_django_core_checks_messages.html'
p217
sg10
S'/usr/local/lib/python2.7/dist-packages/django/core/checks/messages'
p218
sg12
g13
(g14
g15
NtRp219
(dp220
g18
I1
sg19
I0
sg20
I54
sg21
I0
sg22
I0
sg23
I21
sg24
I0
sbssg25
S'\xe8P\xd2\x00_I\xecM\xb7\xd9\xb3\xd7b\x9e\x9e.'
p221
ssS'_usr_local_lib_python2_7_dist-packages_MySQLdb_constants_FLAG'
p222
(dp223
g6
(dp224
g8
S'_usr_local_lib_python2_7_dist-packages_MySQLdb_constants_FLAG.html'
p225
sg10
S'/usr/local/lib/python2.7/dist-packages/MySQLdb/constants/FLAG'
p226
sg12
g13
(g14
g15
NtRp227
(dp228
g18
I1
sg19
I0
sg20
I16
sg21
I0
sg22
I0
sg23
I0
sg24
I0
sbssg25
S':\xf4\x7fH\x8f\xbbaHm\xd9\xf4\xec\x05Zc\x05'
p229
ssS'_usr_local_lib_python2_7_dist-packages_django_db_migrations_recorder'
p230
(dp231
g6
(dp232
g8
S'_usr_local_lib_python2_7_dist-packages_django_db_migrations_recorder.html'
p233
sg10
S'/usr/local/lib/python2.7/dist-packages/django/db/migrations/recorder'
p234
sg12
g13
(g14
g15
NtRp235
(dp236
g18
I1
sg19
I0
sg20
I37
sg21
I0
sg22
I0
sg23
I4
sg24
I0
sbssg25
S'\x82\xce\xe8:\xf44^\xc0\xd1o\x1b\xfeGi\xdc\x92'
p237
ssS'_usr_local_lib_python2_7_dist-packages_django_utils_numberformat'
p238
(dp239
g6
(dp240
g8
S'_usr_local_lib_python2_7_dist-packages_django_utils_numberformat.html'
p241
sg10
S'/usr/local/lib/python2.7/dist-packages/django/utils/numberformat'
p242
sg12
g13
(g14
g15
NtRp243
(dp244
g18
I1
sg19
I0
sg20
I34
sg21
I0
sg22
I0
sg23
I29
sg24
I0
sbssg25
S'\xb7G\xc1\xd5\x94\xb0r\t\xf8E3\xcb\x9b;\xec\xb9'
p245
ssS'_usr_local_lib_python2_7_dist-packages_django_db_backends_mysql_client'
p246
(dp247
g6
(dp248
g8
S'_usr_local_lib_python2_7_dist-packages_django_db_backends_mysql_client.html'
p249
sg10
S'/usr/local/lib/python2.7/dist-packages/django/db/backends/mysql/client'
p250
sg12
g13
(g14
g15
NtRp251
(dp252
g18
I1
sg19
I0
sg20
I33
sg21
I0
sg22
I0
sg23
I27
sg24
I0
sbssg25
S'\x88\xa5c\xe5\x81\xe9fG\xfb\xa34\xa5e`\xe7\xee'
p253
ssS'_usr_local_lib_python2_7_dist-packages_django_core_mail_backends_base'
p254
(dp255
g6
(dp256
g8
S'_usr_local_lib_python2_7_dist-packages_django_core_mail_backends_base.html'
p257
sg10
S'/usr/local/lib/python2.7/dist-packages/django/core/mail/backends/base'
p258
sg12
g13
(g14
g15
NtRp259
(dp260
g18
I1
sg19
I0
sg20
I14
sg21
I0
sg22
I0
sg23
I6
sg24
I0
sbssg25
S'3\x15\x8e\x01U\x1c\xf0\xfb\xbd\t\xfdk\xdf\xee\x0c@'
p261
ssS'_usr_local_lib_python2_7_dist-packages_django_contrib_auth___init__'
p262
(dp263
g6
(dp264
g8
S'_usr_local_lib_python2_7_dist-packages_django_contrib_auth___init__.html'
p265
sg10
S'/usr/local/lib/python2.7/dist-packages/django/contrib/auth/__init__'
p266
sg12
g13
(g14
g15
NtRp267
(dp268
g18
I1
sg19
I0
sg20
I110
sg21
I0
sg22
I0
sg23
I82
sg24
I0
sbssg25
S'<\t\xc3\x1f\x88_Yf\xc8\x8c\xafE\xed\xba,\xfe'
p269
ssS'_usr_local_lib_python2_7_dist-packages_django_contrib_sessions_migrations_0001_initial'
p270
(dp271
g6
(dp272
g8
S'_usr_local_lib_python2_7_dist-packages_django_contrib_sessions_migrations_0001_initial.html'
p273
sg10
S'/usr/local/lib/python2.7/dist-packages/django/contrib/sessions/migrations/0001_initial'
p274
sg12
g13
(g14
g15
NtRp275
(dp276
g18
I1
sg19
I0
sg20
I6
sg21
I0
sg22
I0
sg23
I0
sg24
I0
sbssg25
S'\xa3"\x9c\x7f\xa3\xf10i%`\xb2\xae\xafT\xae\x96'
p277
ssS'_usr_local_lib_python2_7_dist-packages_django_utils_tree'
p278
(dp279
g6
(dp280
g8
S'_usr_local_lib_python2_7_dist-packages_django_utils_tree.html'
p281
sg10
S'/usr/local/lib/python2.7/dist-packages/django/utils/tree'
p282
sg12
g13
(g14
g15
NtRp283
(dp284
g18
I1
sg19
I0
sg20
I52
sg21
I0
sg22
I0
sg23
I21
sg24
I0
sbssg25
S'0\xf8\x1e\x9e\x8d\x86wP1$\xd9\x9cR\xa2\xcd\xe7'
p285
ssS'_usr_local_lib_python2_7_dist-packages_django_template_loaders___init__'
p286
(dp287
g6
(dp288
g8
S'_usr_local_lib_python2_7_dist-packages_django_template_loaders___init__.html'
p289
sg10
S'/usr/local/lib/python2.7/dist-packages/django/template/loaders/__init__'
p290
sg12
g13
(g14
g15
NtRp291
(dp292
g18
I1
sg19
I0
sg20
I0
sg21
I0
sg22
I0
sg23
I0
sg24
I0
sbssg25
S'\xb0\xc8pN\xaf>\xa0\xbaz\x144\xe0A9\xb8?'
p293
ssS'_usr_local_lib_python2_7_dist-packages_django_db_models_fields_files'
p294
(dp295
g6
(dp296
g8
S'_usr_local_lib_python2_7_dist-packages_django_db_models_fields_files.html'
p297
sg10
S'/usr/local/lib/python2.7/dist-packages/django/db/models/fields/files'
p298
sg12
g13
(g14
g15
NtRp299
(dp300
g18
I1
sg19
I0
sg20
I253
sg21
I0
sg22
I0
sg23
I174
sg24
I0
sbssg25
S'\xad dB^O\xcdN\xc0\xcb\xe5\x93\x85%$\xb8'
p301
ssS'_usr_local_lib_python2_7_dist-packages_django_core_checks_security___init__'
p302
(dp303
g6
(dp304
g8
S'_usr_local_lib_python2_7_dist-packages_django_core_checks_security___init__.html'
p305
sg10
S'/usr/local/lib/python2.7/dist-packages/django/core/checks/security/__init__'
p306
sg12
g13
(g14
g15
NtRp307
(dp308
g18
I1
sg19
I0
sg20
I0
sg21
I0
sg22
I0
sg23
I0
sg24
I0
sbssg25
S'\xb0\xc8pN\xaf>\xa0\xbaz\x144\xe0A9\xb8?'
p309
ssS'_usr_local_lib_python2_7_dist-packages_django_test_runner'
p310
(dp311
g6
(dp312
g70
S'_usr_local_lib_python2_7_dist-packages_django_test_runner.html'
p313
sg72
S'/usr/local/lib/python2.7/dist-packages/django/test/runner'
p314
sg74
g13
(g14
g15
NtRp315
(dp316
g18
I1
sg19
I0
sg20
I215
sg21
I0
sg22
I0
sg23
I49
sg24
I0
sbssg25
S'\x9a\x1bf\x7f\x96\xb4\xa7\xf7\xf7eI@\x04\x81\xe1\xfb'
p317
ssS'_usr_local_lib_python2_7_dist-packages_django_db_migrations_executor'
p318
(dp319
g6
(dp320
g8
S'_usr_local_lib_python2_7_dist-packages_django_db_migrations_executor.html'
p321
sg10
S'/usr/local/lib/python2.7/dist-packages/django/db/migrations/executor'
p322
sg12
g13
(g14
g15
NtRp323
(dp324
g18
I1
sg19
I0
sg20
I122
sg21
I0
sg22
I0
sg23
I57
sg24
I0
sbssg25
S'Hv\xb7;\xdb/A\xbc\xa6d\xff\xf8Sc\x00\xe7'
p325
ssS'_usr_local_lib_python2_7_dist-packages_django_utils_crypto'
p326
(dp327
g6
(dp328
g8
S'_usr_local_lib_python2_7_dist-packages_django_utils_crypto.html'
p329
sg10
S'/usr/local/lib/python2.7/dist-packages/django/utils/crypto'
p330
sg12
g13
(g14
g15
NtRp331
(dp332
g18
I1
sg19
I0
sg20
I87
sg21
I0
sg22
I0
sg23
I63
sg24
I0
sbssg25
S'\xdb\xf6\xf5j\xf8\x13\xbe :\xa0\x8b\xdcr\x8e\x02\xfc'
p333
ssS'_usr_local_lib_python2_7_dist-packages_django_contrib_admin_templatetags_admin_static'
p334
(dp335
g6
(dp336
g8
S'_usr_local_lib_python2_7_dist-packages_django_contrib_admin_templatetags_admin_static.html'
p337
sg10
S'/usr/local/lib/python2.7/dist-packages/django/contrib/admin/templatetags/admin_static'
p338
sg12
g13
(g14
g15
NtRp339
(dp340
g18
I1
sg19
I0
sg20
I10
sg21
I0
sg22
I0
sg23
I5
sg24
I0
sbssg25
S'\xa9\xc7\x10\x8f!,\xf1\xd4\x9a\x9fk\xc6$\xe8u%'
p341
ssS'_usr_local_lib_python2_7_dist-packages_django_conf_urls___init__'
p342
(dp343
g6
(dp344
g8
S'_usr_local_lib_python2_7_dist-packages_django_conf_urls___init__.html'
p345
sg10
S'/usr/local/lib/python2.7/dist-packages/django/conf/urls/__init__'
p346
sg12
g13
(g14
g15
NtRp347
(dp348
g18
I1
sg19
I0
sg20
I48
sg21
I0
sg22
I0
sg23
I17
sg24
I0
sbssg25
S't\xd2\x88Z\x03\x94%?7[\x89`\x8c\xfa\x86\xb7'
p349
ssS'_usr_local_lib_python2_7_dist-packages_django_test_client'
p350
(dp351
g6
(dp352
g70
S'_usr_local_lib_python2_7_dist-packages_django_test_client.html'
p353
sg72
S'/usr/local/lib/python2.7/dist-packages/django/test/client'
p354
sg74
g13
(g14
g15
NtRp355
(dp356
g18
I1
sg19
I0
sg20
I315
sg21
I0
sg22
I0
sg23
I161
sg24
I0
sbssg25
S'x\xc8s\xe6\xfe\xae\xb8\x02w\x9f\xe3\x12\xb2\\\xa6/'
p357
ssS'_usr_local_lib_python2_7_dist-packages_django_core_checks___init__'
p358
(dp359
g6
(dp360
g8
S'_usr_local_lib_python2_7_dist-packages_django_core_checks___init__.html'
p361
sg10
S'/usr/local/lib/python2.7/dist-packages/django/core/checks/__init__'
p362
sg12
g13
(g14
g15
NtRp363
(dp364
g18
I1
sg19
I0
sg20
I9
sg21
I0
sg22
I0
sg23
I0
sg24
I0
sbssg25
S'\xb3\x9c\x19\xb6J\x9d\xa4\x95^S"b3\xf9\xd9\x8d'
p365
ssS'_usr_local_lib_python2_7_dist-packages_django_db_models_manager'
p366
(dp367
g6
(dp368
g8
S'_usr_local_lib_python2_7_dist-packages_django_db_models_manager.html'
p369
sg10
S'/usr/local/lib/python2.7/dist-packages/django/db/models/manager'
p370
sg12
g13
(g14
g15
NtRp371
(dp372
g18
I1
sg19
I0
sg20
I149
sg21
I0
sg22
I0
sg23
I21
sg24
I0
sbssg25
S'HSU\xc7pW\xc6\x88|)\x82z\xf3jx\xc6'
p373
ssS'_usr_local_lib_python2_7_dist-packages_django_db_backends_mysql_features'
p374
(dp375
g6
(dp376
g8
S'_usr_local_lib_python2_7_dist-packages_django_db_backends_mysql_features.html'
p377
sg10
S'/usr/local/lib/python2.7/dist-packages/django/db/backends/mysql/features'
p378
sg12
g13
(g14
g15
NtRp379
(dp380
g18
I1
sg19
I0
sg20
I46
sg21
I0
sg22
I0
sg23
I13
sg24
I0
sbssg25
S'wJ\xe9=?(\n6\x81\xe4..\xef\xf3\x88G'
p381
ssS'manage'
p382
(dp383
g6
(dp384
g8
S'manage.html'
p385
sg10
g382
sg12
g13
(g14
g15
NtRp386
(dp387
g18
I1
sg19
I0
sg20
I6
sg21
I0
sg22
I0
sg23
I0
sg24
I0
sbssg25
S'^F\x85;%^\x1c]?$y\xbbP\xf2\xcc\xe4'
p388
ssS'_usr_local_lib_python2_7_dist-packages_pytz_exceptions'
p389
(dp390
g6
(dp391
g8
S'_usr_local_lib_python2_7_dist-packages_pytz_exceptions.html'
p392
sg10
S'/usr/local/lib/python2.7/dist-packages/pytz/exceptions'
p393
sg12
g13
(g14
g15
NtRp394
(dp395
g18
I1
sg19
I0
sg20
I6
sg21
I0
sg22
I0
sg23
I0
sg24
I0
sbssg25
S'\xca\xbadT#j\x8b\xb1Q\x18(s\xf5>\x99\xe1'
p396
ssS'_usr_local_lib_python2_7_dist-packages_MySQLdb_converters'
p397
(dp398
g6
(dp399
g8
S'_usr_local_lib_python2_7_dist-packages_MySQLdb_converters.html'
p400
sg10
S'/usr/local/lib/python2.7/dist-packages/MySQLdb/converters'
p401
sg12
g13
(g14
g15
NtRp402
(dp403
g18
I1
sg19
I0
sg20
I58
sg21
I0
sg22
I0
sg23
I29
sg24
I0
sbssg25
S'\xf8\xbb\xde\x01\xfb<\xa6\xcc5\r\x87\xca\x15;\xa6~'
p404
ssS'_usr_local_lib_python2_7_dist-packages_django_template_response'
p405
(dp406
g6
(dp407
g8
S'_usr_local_lib_python2_7_dist-packages_django_template_response.html'
p408
sg10
S'/usr/local/lib/python2.7/dist-packages/django/template/response'
p409
sg12
g13
(g14
g15
NtRp410
(dp411
g18
I1
sg19
I0
sg20
I90
sg21
I0
sg22
I0
sg23
I63
sg24
I0
sbssg25
S'\t\x1aA\xf7N\xad\x84\x81\xda.\x89\x12\x81\x89\xba\x9f'
p412
ssS'_usr_local_lib_python2_7_dist-packages_django_test___init__'
p413
(dp414
g6
(dp415
g8
S'_usr_local_lib_python2_7_dist-packages_django_test___init__.html'
p416
sg10
S'/usr/local/lib/python2.7/dist-packages/django/test/__init__'
p417
sg12
g13
(g14
g15
NtRp418
(dp419
g18
I1
sg19
I0
sg20
I11
sg21
I0
sg22
I0
sg23
I0
sg24
I0
sbssg25
S'\x910\x87L\xd4!1\x1f\xd2;\xe6\x83\xc2B\xc4\xba'
p420
ssS'_usr_local_lib_python2_7_dist-packages_django_contrib_auth_migrations_0002_alter_permission_name_max_length'
p421
(dp422
g6
(dp423
g8
S'_usr_local_lib_python2_7_dist-packages_django_contrib_auth_migrations_0002_alter_permission_name_max_length.html'
p424
sg10
S'/usr/local/lib/python2.7/dist-packages/django/contrib/auth/migrations/0002_alter_permission_name_max_length'
p425
sg12
g13
(g14
g15
NtRp426
(dp427
g18
I1
sg19
I0
sg20
I5
sg21
I0
sg22
I0
sg23
I0
sg24
I0
sbssg25
S'1w.x\xdcK\xcb\x07\xb6\x8a\xf4\x83}\nQY'
p428
ssS'_usr_local_lib_python2_7_dist-packages_packaging__compat'
p429
(dp430
g6
(dp431
g8
S'_usr_local_lib_python2_7_dist-packages_packaging__compat.html'
p432
sg10
S'/usr/local/lib/python2.7/dist-packages/packaging/_compat'
p433
sg12
g13
(g14
g15
NtRp434
(dp435
g18
I1
sg19
I0
sg20
I12
sg21
I0
sg22
I0
sg23
I1
sg24
I0
sbssg25
S'\x1ef\xcf\x1b\xfet\x91\x88\xe6-\x8b\xe3v\xee\xdf\x98'
p436
ssS'_usr_local_lib_python2_7_dist-packages_django_db_backends_base_base'
p437
(dp438
g6
(dp439
g8
S'_usr_local_lib_python2_7_dist-packages_django_db_backends_base_base.html'
p440
sg10
S'/usr/local/lib/python2.7/dist-packages/django/db/backends/base/base'
p441
sg12
g13
(g14
g15
NtRp442
(dp443
g18
I1
sg19
I0
sg20
I225
sg21
I0
sg22
I0
sg23
I42
sg24
I0
sbssg25
S' \xcb\xc4\xb7\xd3\x9a\x06\xc4\xd3\x80>9(|\xcc\xf3'
p444
ssS'_usr_local_lib_python2_7_dist-packages_django_template_loaders_filesystem'
p445
(dp446
g6
(dp447
g8
S'_usr_local_lib_python2_7_dist-packages_django_template_loaders_filesystem.html'
p448
sg10
S'/usr/local/lib/python2.7/dist-packages/django/template/loaders/filesystem'
p449
sg12
g13
(g14
g15
NtRp450
(dp451
g18
I1
sg19
I0
sg20
I28
sg21
I0
sg22
I0
sg23
I10
sg24
I0
sbssg25
S'~\x87\x8b\xdcV:w\xe9\xad)\x8f\xf7\xfavmp'
p452
ssS'_usr_local_lib_python2_7_dist-packages_django_template_backends_base'
p453
(dp454
g6
(dp455
g8
S'_usr_local_lib_python2_7_dist-packages_django_template_backends_base.html'
p456
sg10
S'/usr/local/lib/python2.7/dist-packages/django/template/backends/base'
p457
sg12
g13
(g14
g15
NtRp458
(dp459
g18
I1
sg19
I0
sg20
I30
sg21
I0
sg22
I0
sg23
I13
sg24
I0
sbssg25
S"'\x01\xe3NQOv\xe5\\8a\xbc\n\x15\xd81"
p460
ssS'_usr_local_lib_python2_7_dist-packages_django_db_backends_base_operations'
p461
(dp462
g6
(dp463
g8
S'_usr_local_lib_python2_7_dist-packages_django_db_backends_base_operations.html'
p464
sg10
S'/usr/local/lib/python2.7/dist-packages/django/db/backends/base/operations'
p465
sg12
g13
(g14
g15
NtRp466
(dp467
g18
I1
sg19
I0
sg20
I179
sg21
I0
sg22
I0
sg23
I85
sg24
I0
sbssg25
S'\x04\xce\xa7\xc0``@\x17\xb34\t\x9c\xc7\x01\xbe2'
p468
ssS'_usr_local_lib_python2_7_dist-packages_django_contrib_messages_storage___init__'
p469
(dp470
g6
(dp471
g8
S'_usr_local_lib_python2_7_dist-packages_django_contrib_messages_storage___init__.html'
p472
sg10
S'/usr/local/lib/python2.7/dist-packages/django/contrib/messages/storage/__init__'
p473
sg12
g13
(g14
g15
NtRp474
(dp475
g18
I1
sg19
I0
sg20
I4
sg21
I0
sg22
I0
sg23
I0
sg24
I0
sbssg25
S'\xfeS\xb0"U\x82\x03i\xf2PT\x1cu\x99\x1c\x98'
p476
ssS'_usr_local_lib_python2_7_dist-packages_django_contrib_contenttypes_views'
p477
(dp478
g6
(dp479
g8
S'_usr_local_lib_python2_7_dist-packages_django_contrib_contenttypes_views.html'
p480
sg10
S'/usr/local/lib/python2.7/dist-packages/django/contrib/contenttypes/views'
p481
sg12
g13
(g14
g15
NtRp482
(dp483
g18
I1
sg19
I0
sg20
I53
sg21
I0
sg22
I0
sg23
I45
sg24
I0
sbssg25
S'\xc8\xd3\x14\xe9\x9bfb\x15\x00K\x83\x0e\x07\xd2\x8d\xdb'
p484
ssS'_usr_local_lib_python2_7_dist-packages_django_dispatch_dispatcher'
p485
(dp486
g6
(dp487
g8
S'_usr_local_lib_python2_7_dist-packages_django_dispatch_dispatcher.html'
p488
sg10
S'/usr/local/lib/python2.7/dist-packages/django/dispatch/dispatcher'
p489
sg12
g13
(g14
g15
NtRp490
(dp491
g18
I1
sg19
I0
sg20
I140
sg21
I0
sg22
I0
sg23
I39
sg24
I0
sbssg25
S'\x99( \x1b\x89h\x1d\xa75U^\x1f9gs\x1e'
p492
ssS'_usr_local_lib_python2_7_dist-packages_django_utils_timesince'
p493
(dp494
g6
(dp495
g8
S'_usr_local_lib_python2_7_dist-packages_django_utils_timesince.html'
p496
sg10
S'/usr/local/lib/python2.7/dist-packages/django/utils/timesince'
p497
sg12
g13
(g14
g15
NtRp498
(dp499
g18
I1
sg19
I0
sg20
I30
sg21
I0
sg22
I0
sg23
I22
sg24
I0
sbssg25
S'\xda)\xf1Sq?\xe7\xf6\xcbD\xc2c\xff\xe9\\\xd7'
p500
ssS'_usr_local_lib_python2_7_dist-packages_django_db_migrations_operations___init__'
p501
(dp502
g6
(dp503
g8
S'_usr_local_lib_python2_7_dist-packages_django_db_migrations_operations___init__.html'
p504
sg10
S'/usr/local/lib/python2.7/dist-packages/django/db/migrations/operations/__init__'
p505
sg12
g13
(g14
g15
NtRp506
(dp507
g18
I1
sg19
I0
sg20
I4
sg21
I0
sg22
I0
sg23
I0
sg24
I0
sbssg25
S'\t\x9f\xa5\x1e\x04r\xff\xfc\x94\xa9W\x90\x86\x9d\x88['
p508
ssS'_usr_local_lib_python2_7_dist-packages_django_contrib_contenttypes_admin'
p509
(dp510
g6
(dp511
g8
S'_usr_local_lib_python2_7_dist-packages_django_contrib_contenttypes_admin.html'
p512
sg10
S'/usr/local/lib/python2.7/dist-packages/django/contrib/contenttypes/admin'
p513
sg12
g13
(g14
g15
NtRp514
(dp515
g18
I1
sg19
I0
sg20
I55
sg21
I0
sg22
I0
sg23
I32
sg24
I0
sbssg25
S'\x8f}9\x1e\xa9\xc5\xf0\xdd\xa31@j7E\x967'
p516
ssS'_usr_local_lib_python2_7_dist-packages_django_contrib_auth_migrations_0005_alter_user_last_login_null'
p517
(dp518
g6
(dp519
g8
S'_usr_local_lib_python2_7_dist-packages_django_contrib_auth_migrations_0005_alter_user_last_login_null.html'
p520
sg10
S'/usr/local/lib/python2.7/dist-packages/django/contrib/auth/migrations/0005_alter_user_last_login_null'
p521
sg12
g13
(g14
g15
NtRp522
(dp523
g18
I1
sg19
I0
sg20
I5
sg21
I0
sg22
I0
sg23
I0
sg24
I0
sbssg25
S'H\xfc\xdbs)73\x9c\xf3\xb3\xd9\x0f\xfd=\xa5_'
p524
ssS'_usr_local_lib_python2_7_dist-packages_django_dispatch___init__'
p525
(dp526
g6
(dp527
g8
S'_usr_local_lib_python2_7_dist-packages_django_dispatch___init__.html'
p528
sg10
S'/usr/local/lib/python2.7/dist-packages/django/dispatch/__init__'
p529
sg12
g13
(g14
g15
NtRp530
(dp531
g18
I1
sg19
I0
sg20
I1
sg21
I0
sg22
I0
sg23
I0
sg24
I0
sbssg25
S'\xa7>\xfc]\xa2\xc8\x97\x0b\xfb2\xef\xeep\xb7\xed\x99'
p532
ssS'_usr_local_lib_python2_7_dist-packages_django_contrib_contenttypes_apps'
p533
(dp534
g6
(dp535
g8
S'_usr_local_lib_python2_7_dist-packages_django_contrib_contenttypes_apps.html'
p536
sg10
S'/usr/local/lib/python2.7/dist-packages/django/contrib/contenttypes/apps'
p537
sg12
g13
(g14
g15
NtRp538
(dp539
g18
I1
sg19
I0
sg20
I12
sg21
I0
sg22
I0
sg23
I0
sg24
I0
sbssg25
S'?\xd6\xbd\xe4\xf3\x1d\x86\x1e\xd5i\xde\xe2\xd6+\xfe\xf8'
p540
ssS'_usr_local_lib_python2_7_dist-packages_django_core_management_sql'
p541
(dp542
g6
(dp543
g8
S'_usr_local_lib_python2_7_dist-packages_django_core_management_sql.html'
p544
sg10
S'/usr/local/lib/python2.7/dist-packages/django/core/management/sql'
p545
sg12
g13
(g14
g15
NtRp546
(dp547
g18
I1
sg19
I0
sg20
I155
sg21
I0
sg22
I0
sg23
I115
sg24
I0
sbssg25
S'\xebH1\xfe\x91\x92x\\%(K<\x84\xa7\xfc\x0b'
p548
ssS'_usr_local_lib_python2_7_dist-packages_django_views_decorators_cache'
p549
(dp550
g6
(dp551
g8
S'_usr_local_lib_python2_7_dist-packages_django_views_decorators_cache.html'
p552
sg10
S'/usr/local/lib/python2.7/dist-packages/django/views/decorators/cache'
p553
sg12
g13
(g14
g15
NtRp554
(dp555
g18
I1
sg19
I0
sg20
I27
sg21
I0
sg22
I0
sg23
I18
sg24
I0
sbssg25
S'\xce\n\x00+\x1bi\xda\x12h\xb4\xf2\x8a\x99\x9d}\xf1'
p556
ssS'_usr_local_lib_python2_7_dist-packages_django_template_utils'
p557
(dp558
g6
(dp559
g8
S'_usr_local_lib_python2_7_dist-packages_django_template_utils.html'
p560
sg10
S'/usr/local/lib/python2.7/dist-packages/django/template/utils'
p561
sg12
g13
(g14
g15
NtRp562
(dp563
g18
I1
sg19
I0
sg20
I68
sg21
I0
sg22
I0
sg23
I9
sg24
I0
sbssg25
S'W\x181\xa2\xe3\xf5\xe0\xa1\x95C\\Q\x0f\xc9\x9bK'
p564
ssS'_usr_local_lib_python2_7_dist-packages_django_forms___init__'
p565
(dp566
g6
(dp567
g8
S'_usr_local_lib_python2_7_dist-packages_django_forms___init__.html'
p568
sg10
S'/usr/local/lib/python2.7/dist-packages/django/forms/__init__'
p569
sg12
g13
(g14
g15
NtRp570
(dp571
g18
I1
sg19
I0
sg20
I6
sg21
I0
sg22
I0
sg23
I0
sg24
I0
sbssg25
S'\xcf\x89\xf0\x10F\x0f#(jw\xcd\xab\x9bs\x14\x84'
p572
ssS'_usr_local_lib_python2_7_dist-packages_django_contrib_contenttypes_forms'
p573
(dp574
g6
(dp575
g8
S'_usr_local_lib_python2_7_dist-packages_django_contrib_contenttypes_forms.html'
p576
sg10
S'/usr/local/lib/python2.7/dist-packages/django/contrib/contenttypes/forms'
p577
sg12
g13
(g14
g15
NtRp578
(dp579
g18
I1
sg19
I0
sg20
I38
sg21
I0
sg22
I0
sg23
I28
sg24
I0
sbssg25
S'\x16\x11\x0741\xa3\x85\xf5LL\xe8\x10\xaf\xb9\xce\xa0'
p580
ssS'_usr_local_lib_python2_7_dist-packages_django_contrib_auth_tokens'
p581
(dp582
g6
(dp583
g8
S'_usr_local_lib_python2_7_dist-packages_django_contrib_auth_tokens.html'
p584
sg10
S'/usr/local/lib/python2.7/dist-packages/django/contrib/auth/tokens'
p585
sg12
g13
(g14
g15
NtRp586
(dp587
g18
I1
sg19
I0
sg20
I34
sg21
I0
sg22
I0
sg23
I22
sg24
I0
sbssg25
S'm\xedR\xb6\xbb\x9c\xe2\x05e\x1b\xa2a:@jf'
p588
ssS'_usr_local_lib_python2_7_dist-packages_django_contrib_messages_api'
p589
(dp590
g6
(dp591
g8
S'_usr_local_lib_python2_7_dist-packages_django_contrib_messages_api.html'
p592
sg10
S'/usr/local/lib/python2.7/dist-packages/django/contrib/messages/api'
p593
sg12
g13
(g14
g15
NtRp594
(dp595
g18
I1
sg19
I0
sg20
I37
sg21
I0
sg22
I0
sg23
I20
sg24
I0
sbssg25
S'.\xaa\xc5\xc9\x15\xa4!\x86\x15\x0eXq\xca\xd2\xee\xb4'
p596
ssS'_usr_local_lib_python2_7_dist-packages_django_db_backends_mysql___init__'
p597
(dp598
g6
(dp599
g8
S'_usr_local_lib_python2_7_dist-packages_django_db_backends_mysql___init__.html'
p600
sg10
S'/usr/local/lib/python2.7/dist-packages/django/db/backends/mysql/__init__'
p601
sg12
g13
(g14
g15
NtRp602
(dp603
g18
I1
sg19
I0
sg20
I0
sg21
I0
sg22
I0
sg23
I0
sg24
I0
sbssg25
S'\xb0\xc8pN\xaf>\xa0\xbaz\x144\xe0A9\xb8?'
p604
ssS'_usr_local_lib_python2_7_dist-packages_django_db_models_fields___init__'
p605
(dp606
g6
(dp607
g8
S'_usr_local_lib_python2_7_dist-packages_django_db_models_fields___init__.html'
p608
sg10
S'/usr/local/lib/python2.7/dist-packages/django/db/models/fields/__init__'
p609
sg12
g13
(g14
g15
NtRp610
(dp611
g18
I1
sg19
I0
sg20
I1320
sg21
I0
sg22
I0
sg23
I705
sg24
I0
sbssg25
S'Q\xbf8\xed\xac\xd9)\x1bl@\x19\x141^\x1c<'
p612
ssS'_usr_local_lib_python2_7_dist-packages_django_template_loader_tags'
p613
(dp614
g6
(dp615
g8
S'_usr_local_lib_python2_7_dist-packages_django_template_loader_tags.html'
p616
sg10
S'/usr/local/lib/python2.7/dist-packages/django/template/loader_tags'
p617
sg12
g13
(g14
g15
NtRp618
(dp619
g18
I1
sg19
I0
sg20
I155
sg21
I0
sg22
I0
sg23
I124
sg24
I0
sbssg25
S"\xb7]\x02\xc3O\x80'\xadP\x97\x10PR\xf8X\xa3"
p620
ssS'_usr_local_lib_python2_7_dist-packages_django_db_models_query_utils'
p621
(dp622
g6
(dp623
g8
S'_usr_local_lib_python2_7_dist-packages_django_db_models_query_utils.html'
p624
sg10
S'/usr/local/lib/python2.7/dist-packages/django/db/models/query_utils'
p625
sg12
g13
(g14
g15
NtRp626
(dp627
g18
I1
sg19
I0
sg20
I135
sg21
I0
sg22
I0
sg23
I99
sg24
I0
sbssg25
S'm\x01\xaf\x0f\xd8\xe9\xec1Ow\x94^j\xd8\xcey'
p628
ssS'_usr_local_lib_python2_7_dist-packages_django_contrib_auth_signals'
p629
(dp630
g6
(dp631
g8
S'_usr_local_lib_python2_7_dist-packages_django_contrib_auth_signals.html'
p632
sg10
S'/usr/local/lib/python2.7/dist-packages/django/contrib/auth/signals'
p633
sg12
g13
(g14
g15
NtRp634
(dp635
g18
I1
sg19
I0
sg20
I4
sg21
I0
sg22
I0
sg23
I0
sg24
I0
sbssg25
S'juq\x85\xf8\xf6\x92\xd4\xc6;\xc1\x16\xc2\xaa\xe6\xec'
p636
ssS'_usr_local_lib_python2_7_dist-packages_django_contrib_auth_middleware'
p637
(dp638
g6
(dp639
g8
S'_usr_local_lib_python2_7_dist-packages_django_contrib_auth_middleware.html'
p640
sg10
S'/usr/local/lib/python2.7/dist-packages/django/contrib/auth/middleware'
p641
sg12
g13
(g14
g15
NtRp642
(dp643
g18
I1
sg19
I0
sg20
I50
sg21
I0
sg22
I0
sg23
I32
sg24
I0
sbssg25
S'Xu\xa8M\xc5\xfd\x13\xad\t\x0e$\x8bP\x84q\n'
p644
ssS'_usr_local_lib_python2_7_dist-packages_django_db_models_base'
p645
(dp646
g6
(dp647
g8
S'_usr_local_lib_python2_7_dist-packages_django_db_models_base.html'
p648
sg10
S'/usr/local/lib/python2.7/dist-packages/django/db/models/base'
p649
sg12
g13
(g14
g15
NtRp650
(dp651
g18
I1
sg19
I0
sg20
I819
sg21
I0
sg22
I0
sg23
I546
sg24
I0
sbssg25
S'6\xedv:\x02\x10\xb0\x8d\x0f\x01Y}+\xd0\x87d'
p652
ssS'_usr_local_lib_python2_7_dist-packages_django_core_management_commands_test'
p653
(dp654
g6
(dp655
g70
S'_usr_local_lib_python2_7_dist-packages_django_core_management_commands_test.html'
p656
sg72
S'/usr/local/lib/python2.7/dist-packages/django/core/management/commands/test'
p657
sg74
g13
(g14
g15
NtRp658
(dp659
g18
I1
sg19
I0
sg20
I49
sg21
I0
sg22
I0
sg23
I6
sg24
I0
sbssg25
S'\x97\x12+\xb0p\xfeM\xde\xe9\xf3d\x14\xb6pV:'
p660
ssS'_usr_local_lib_python2_7_dist-packages_django_db_models_options'
p661
(dp662
g6
(dp663
g8
S'_usr_local_lib_python2_7_dist-packages_django_db_models_options.html'
p664
sg10
S'/usr/local/lib/python2.7/dist-packages/django/db/models/options'
p665
sg12
g13
(g14
g15
NtRp666
(dp667
g18
I1
sg19
I0
sg20
I387
sg21
I0
sg22
I0
sg23
I107
sg24
I0
sbssg25
S'\xc9\xdf^(\x00A\xeb6B1\x0e\xb8r\xbb\xbd\xb5'
p668
ssS'_usr_local_lib_python2_7_dist-packages_django_utils_deconstruct'
p669
(dp670
g6
(dp671
g8
S'_usr_local_lib_python2_7_dist-packages_django_utils_deconstruct.html'
p672
sg10
S'/usr/local/lib/python2.7/dist-packages/django/utils/deconstruct'
p673
sg12
g13
(g14
g15
NtRp674
(dp675
g18
I1
sg19
I0
sg20
I25
sg21
I0
sg22
I0
sg23
I9
sg24
I0
sbssg25
S'\xd1;\xff\x98{\xfe\xb4\x92\xd2\xbe0W\xaei\xa6o'
p676
ssS'_usr_local_lib_python2_7_dist-packages_django_core_urlresolvers'
p677
(dp678
g6
(dp679
g70
S'_usr_local_lib_python2_7_dist-packages_django_core_urlresolvers.html'
p680
sg72
S'/usr/local/lib/python2.7/dist-packages/django/core/urlresolvers'
p681
sg74
g13
(g14
g15
NtRp682
(dp683
g18
I1
sg19
I0
sg20
I379
sg21
I0
sg22
I0
sg23
I115
sg24
I0
sbssg25
S'Rv\x99\xcf\xc6\x99\xc7,\x89\x85\x80\xb0\x91\xfd!\x0b'
p684
ssS'_usr_local_lib_python2_7_dist-packages_django_core___init__'
p685
(dp686
g6
(dp687
g8
S'_usr_local_lib_python2_7_dist-packages_django_core___init__.html'
p688
sg10
S'/usr/local/lib/python2.7/dist-packages/django/core/__init__'
p689
sg12
g13
(g14
g15
NtRp690
(dp691
g18
I1
sg19
I0
sg20
I0
sg21
I0
sg22
I0
sg23
I0
sg24
I0
sbssg25
S'\xb0\xc8pN\xaf>\xa0\xbaz\x144\xe0A9\xb8?'
p692
ssS'_usr_local_lib_python2_7_dist-packages_django_middleware_csrf'
p693
(dp694
g6
(dp695
g8
S'_usr_local_lib_python2_7_dist-packages_django_middleware_csrf.html'
p696
sg10
S'/usr/local/lib/python2.7/dist-packages/django/middleware/csrf'
p697
sg12
g13
(g14
g15
NtRp698
(dp699
g18
I1
sg19
I0
sg20
I84
sg21
I0
sg22
I0
sg23
I42
sg24
I0
sbssg25
S'\xbaQ\xa2\x85\x19\xa6\xf7\xdb\xa23\xb7\xf4\x9d\xd8\x0f\xd8'
p700
ssS'_usr_local_lib_python2_7_dist-packages_django_contrib_sites_shortcuts'
p701
(dp702
g6
(dp703
g8
S'_usr_local_lib_python2_7_dist-packages_django_contrib_sites_shortcuts.html'
p704
sg10
S'/usr/local/lib/python2.7/dist-packages/django/contrib/sites/shortcuts'
p705
sg12
g13
(g14
g15
NtRp706
(dp707
g18
I1
sg19
I0
sg20
I8
sg21
I0
sg22
I0
sg23
I5
sg24
I0
sbssg25
S'\xf5\x9b$[G\x9a"\x80\xe8\x81\x1f\xb9\xcf\xd0YB'
p708
ssS'_usr_local_lib_python2_7_dist-packages_django_contrib_sessions_backends_db'
p709
(dp710
g6
(dp711
g8
S'_usr_local_lib_python2_7_dist-packages_django_contrib_sessions_backends_db.html'
p712
sg10
S'/usr/local/lib/python2.7/dist-packages/django/contrib/sessions/backends/db'
p713
sg12
g13
(g14
g15
NtRp714
(dp715
g18
I1
sg19
I0
sg20
I53
sg21
I0
sg22
I0
sg23
I37
sg24
I0
sbssg25
S'\xf9\xb6\x8c\x90\xb3?\xde\x1d\x05\r\xaa\x11\x7fxE\x80'
p716
ssS'_usr_local_lib_python2_7_dist-packages_MySQLdb_constants_CLIENT'
p717
(dp718
g6
(dp719
g8
S'_usr_local_lib_python2_7_dist-packages_MySQLdb_constants_CLIENT.html'
p720
sg10
S'/usr/local/lib/python2.7/dist-packages/MySQLdb/constants/CLIENT'
p721
sg12
g13
(g14
g15
NtRp722
(dp723
g18
I1
sg19
I0
sg20
I18
sg21
I0
sg22
I0
sg23
I0
sg24
I0
sbssg25
S'\x03\x9c\xa1\xd6\x8b\xa5\xbea\xff\x07\xf2l5*h@'
p724
ssS'_usr_local_lib_python2_7_dist-packages_django_contrib_staticfiles_apps'
p725
(dp726
g6
(dp727
g8
S'_usr_local_lib_python2_7_dist-packages_django_contrib_staticfiles_apps.html'
p728
sg10
S'/usr/local/lib/python2.7/dist-packages/django/contrib/staticfiles/apps'
p729
sg12
g13
(g14
g15
NtRp730
(dp731
g18
I1
sg19
I0
sg20
I5
sg21
I0
sg22
I0
sg23
I0
sg24
I0
sbssg25
S'e\x15Q\xe2\xc0,Q\x16\x80\xc7\x0eO8+\x980'
p732
ssS'_usr_local_lib_python2_7_dist-packages_django_http___init__'
p733
(dp734
g6
(dp735
g8
S'_usr_local_lib_python2_7_dist-packages_django_http___init__.html'
p736
sg10
S'/usr/local/lib/python2.7/dist-packages/django/http/__init__'
p737
sg12
g13
(g14
g15
NtRp738
(dp739
g18
I1
sg19
I0
sg20
I5
sg21
I0
sg22
I0
sg23
I0
sg24
I0
sbssg25
S'\xf9T\x14\x9e`\xa7\xec\xc3\x08\xf0q\xadCJJC'
p740
ssS'_usr_local_lib_python2_7_dist-packages_django_template_defaultfilters'
p741
(dp742
g6
(dp743
g8
S'_usr_local_lib_python2_7_dist-packages_django_template_defaultfilters.html'
p744
sg10
S'/usr/local/lib/python2.7/dist-packages/django/template/defaultfilters'
p745
sg12
g13
(g14
g15
NtRp746
(dp747
g18
I1
sg19
I0
sg20
I461
sg21
I0
sg22
I0
sg23
I331
sg24
I0
sbssg25
S'\xaaq\x86Ca\x1apvi\x19\x1d\x1dY\x93\x97\xb9'
p748
ssS'_usr_local_lib_python2_7_dist-packages_django_db_migrations_autodetector'
p749
(dp750
g6
(dp751
g8
S'_usr_local_lib_python2_7_dist-packages_django_db_migrations_autodetector.html'
p752
sg10
S'/usr/local/lib/python2.7/dist-packages/django/db/migrations/autodetector'
p753
sg12
g13
(g14
g15
NtRp754
(dp755
g18
I1
sg19
I0
sg20
I538
sg21
I0
sg22
I0
sg23
I494
sg24
I0
sbssg25
S'\x10\x98\x0f]uE\x86Mt\xf5\x04\xbf\xb3\xc0\x17Q'
p756
ssS'_usr_local_lib_python2_7_dist-packages_MySQLdb_constants_FIELD_TYPE'
p757
(dp758
g6
(dp759
g8
S'_usr_local_lib_python2_7_dist-packages_MySQLdb_constants_FIELD_TYPE.html'
p760
sg10
S'/usr/local/lib/python2.7/dist-packages/MySQLdb/constants/FIELD_TYPE'
p761
sg12
g13
(g14
g15
NtRp762
(dp763
g18
I1
sg19
I0
sg20
I29
sg21
I0
sg22
I0
sg23
I0
sg24
I0
sbssg25
S'~)\r\x97\xef\x9c\x11U\xf8\x97\xf5\xfe(B\xcb`'
p764
ssS'_usr_local_lib_python2_7_dist-packages_django_core_cache_backends_base'
p765
(dp766
g6
(dp767
g8
S'_usr_local_lib_python2_7_dist-packages_django_core_cache_backends_base.html'
p768
sg10
S'/usr/local/lib/python2.7/dist-packages/django/core/cache/backends/base'
p769
sg12
g13
(g14
g15
NtRp770
(dp771
g18
I1
sg19
I0
sg20
I108
sg21
I0
sg22
I0
sg23
I57
sg24
I0
sbssg25
S'\x03\xbfB\xeb\xdc\xbb\\\xf1\xfa\x0bc\xb5\xdb\x92\n\t'
p772
ssS'_usr_local_lib_python2_7_dist-packages_django_utils_cache'
p773
(dp774
g6
(dp775
g8
S'_usr_local_lib_python2_7_dist-packages_django_utils_cache.html'
p776
sg10
S'/usr/local/lib/python2.7/dist-packages/django/utils/cache'
p777
sg12
g13
(g14
g15
NtRp778
(dp779
g18
I1
sg19
I0
sg20
I133
sg21
I0
sg22
I0
sg23
I104
sg24
I0
sbssg25
S'\x8cd\xb0`\x93t\x9b\xbe\xb9\xac\xc8tF\xc7\xf1R'
p780
ssS'_usr_local_lib_python2_7_dist-packages_packaging___about__'
p781
(dp782
g6
(dp783
g8
S'_usr_local_lib_python2_7_dist-packages_packaging___about__.html'
p784
sg10
S'/usr/local/lib/python2.7/dist-packages/packaging/__about__'
p785
sg12
g13
(g14
g15
NtRp786
(dp787
g18
I1
sg19
I0
sg20
I10
sg21
I0
sg22
I0
sg23
I0
sg24
I0
sbssg25
S'\xb6=\x82\x81\xfb\xa5\xf9\x00\xc6\xe7\xf884\x83s\x8d'
p788
ssS'_usr_local_lib_python2_7_dist-packages_django_contrib_admin_checks'
p789
(dp790
g6
(dp791
g8
S'_usr_local_lib_python2_7_dist-packages_django_contrib_admin_checks.html'
p792
sg10
S'/usr/local/lib/python2.7/dist-packages/django/contrib/admin/checks'
p793
sg12
g13
(g14
g15
NtRp794
(dp795
g18
I1
sg19
I0
sg20
I401
sg21
I0
sg22
I0
sg23
I212
sg24
I0
sbssg25
S'\xdf\xd7{\xf9\xb8\xa2\xae\x15\x92\xb2\x06ux\xedM&'
p796
ssS'_usr_local_lib_python2_7_dist-packages_django_template_smartif'
p797
(dp798
g6
(dp799
g8
S'_usr_local_lib_python2_7_dist-packages_django_template_smartif.html'
p800
sg10
S'/usr/local/lib/python2.7/dist-packages/django/template/smartif'
p801
sg12
g13
(g14
g15
NtRp802
(dp803
g18
I1
sg19
I0
sg20
I108
sg21
I0
sg22
I0
sg23
I63
sg24
I0
sbssg25
S'Q\xf1\x00\x0c3\x82\xaf\x9b\x8d|\x0fB\x96\x9cvn'
p804
ssS'_usr_local_lib_python2_7_dist-packages_django_core_files___init__'
p805
(dp806
g6
(dp807
g8
S'_usr_local_lib_python2_7_dist-packages_django_core_files___init__.html'
p808
sg10
S'/usr/local/lib/python2.7/dist-packages/django/core/files/__init__'
p809
sg12
g13
(g14
g15
NtRp810
(dp811
g18
I1
sg19
I0
sg20
I2
sg21
I0
sg22
I0
sg23
I0
sg24
I0
sbssg25
S'i\xe6\xf12\xa4X\xf0\xf2?\x9aZ\xbb&\xa6\x1f^'
p812
ssS'_usr_local_lib_python2_7_dist-packages_django_contrib_contenttypes_fields'
p813
(dp814
g6
(dp815
g8
S'_usr_local_lib_python2_7_dist-packages_django_contrib_contenttypes_fields.html'
p816
sg10
S'/usr/local/lib/python2.7/dist-packages/django/contrib/contenttypes/fields'
p817
sg12
g13
(g14
g15
NtRp818
(dp819
g18
I1
sg19
I0
sg20
I312
sg21
I0
sg22
I0
sg23
I248
sg24
I0
sbssg25
S'\xa6X\xc4\x15\xa3\xcb>\xa7\xc9\x9a\x9e\x10w\x94cX'
p820
ssS'_usr_local_lib_python2_7_dist-packages_django_db_models_aggregates'
p821
(dp822
g6
(dp823
g8
S'_usr_local_lib_python2_7_dist-packages_django_db_models_aggregates.html'
p824
sg10
S'/usr/local/lib/python2.7/dist-packages/django/db/models/aggregates'
p825
sg12
g13
(g14
g15
NtRp826
(dp827
g18
I1
sg19
I0
sg20
I87
sg21
I0
sg22
I0
sg23
I44
sg24
I0
sbssg25
S'8\t~l\xd0\x97\x19\xa3\xd6P\xbf\xfd\xc6\xa7\xde\xb3'
p828
ssS'Election_tests'
p829
(dp830
g6
(dp831
g70
S'Election_tests.html'
p832
sg72
S'Election/tests'
p833
sg74
g13
(g14
g15
NtRp834
(dp835
g18
I1
sg19
I0
sg20
I56
sg21
I0
sg22
I0
sg23
I0
sg24
I0
sbssg25
S"+\xc1&m\x15\x9a'\x83\xbbh\x8d\xd7\xe71\xa1t"
p836
ssS'_usr_local_lib_python2_7_dist-packages_django_middleware___init__'
p837
(dp838
g6
(dp839
g8
S'_usr_local_lib_python2_7_dist-packages_django_middleware___init__.html'
p840
sg10
S'/usr/local/lib/python2.7/dist-packages/django/middleware/__init__'
p841
sg12
g13
(g14
g15
NtRp842
(dp843
g18
I1
sg19
I0
sg20
I0
sg21
I0
sg22
I0
sg23
I0
sg24
I0
sbssg25
S'\xb0\xc8pN\xaf>\xa0\xbaz\x144\xe0A9\xb8?'
p844
ssS'_usr_local_lib_python2_7_dist-packages_django_contrib_sessions_serializers'
p845
(dp846
g6
(dp847
g8
S'_usr_local_lib_python2_7_dist-packages_django_contrib_sessions_serializers.html'
p848
sg10
S'/usr/local/lib/python2.7/dist-packages/django/contrib/sessions/serializers'
p849
sg12
g13
(g14
g15
NtRp850
(dp851
g18
I1
sg19
I0
sg20
I11
sg21
I0
sg22
I0
sg23
I4
sg24
I0
sbssg25
S'\xe9\xf81[U\xa7\xae\xcer4\xcd\xdb:\xcb]\x95'
p852
ssS'_usr_local_lib_python2_7_dist-packages_django_apps_registry'
p853
(dp854
g6
(dp855
g8
S'_usr_local_lib_python2_7_dist-packages_django_apps_registry.html'
p856
sg10
S'/usr/local/lib/python2.7/dist-packages/django/apps/registry'
p857
sg12
g13
(g14
g15
NtRp858
(dp859
g18
I1
sg19
I0
sg20
I186
sg21
I0
sg22
I0
sg23
I75
sg24
I0
sbssg25
S'yJ\xea\xba]\x99+n\x1eX\x07\xfa\x9bS\xb1\xc9'
p860
ssS'_usr_local_lib_python2_7_dist-packages_django_core_exceptions'
p861
(dp862
g6
(dp863
g8
S'_usr_local_lib_python2_7_dist-packages_django_core_exceptions.html'
p864
sg10
S'/usr/local/lib/python2.7/dist-packages/django/core/exceptions'
p865
sg12
g13
(g14
g15
NtRp866
(dp867
g18
I1
sg19
I0
sg20
I87
sg21
I0
sg22
I0
sg23
I47
sg24
I0
sbssg25
S'l)\xd6\x7f\xb6\xa2\xac\x99bw\xe4\x07\xf8-/\xf4'
p868
ssS'_usr_local_lib_python2_7_dist-packages_django_db_backends_base___init__'
p869
(dp870
g6
(dp871
g8
S'_usr_local_lib_python2_7_dist-packages_django_db_backends_base___init__.html'
p872
sg10
S'/usr/local/lib/python2.7/dist-packages/django/db/backends/base/__init__'
p873
sg12
g13
(g14
g15
NtRp874
(dp875
g18
I1
sg19
I0
sg20
I0
sg21
I0
sg22
I0
sg23
I0
sg24
I0
sbssg25
S'\xb0\xc8pN\xaf>\xa0\xbaz\x144\xe0A9\xb8?'
p876
ssS'_usr_local_lib_python2_7_dist-packages_django_contrib_sessions_management___init__'
p877
(dp878
g6
(dp879
g8
S'_usr_local_lib_python2_7_dist-packages_django_contrib_sessions_management___init__.html'
p880
sg10
S'/usr/local/lib/python2.7/dist-packages/django/contrib/sessions/management/__init__'
p881
sg12
g13
(g14
g15
NtRp882
(dp883
g18
I1
sg19
I0
sg20
I0
sg21
I0
sg22
I0
sg23
I0
sg24
I0
sbssg25
S'\xb0\xc8pN\xaf>\xa0\xbaz\x144\xe0A9\xb8?'
p884
ssS'_usr_local_lib_python2_7_dist-packages_django_core_files_uploadhandler'
p885
(dp886
g6
(dp887
g8
S'_usr_local_lib_python2_7_dist-packages_django_core_files_uploadhandler.html'
p888
sg10
S'/usr/local/lib/python2.7/dist-packages/django/core/files/uploadhandler'
p889
sg12
g13
(g14
g15
NtRp890
(dp891
g18
I1
sg19
I0
sg20
I78
sg21
I0
sg22
I0
sg23
I42
sg24
I0
sbssg25
S'\x87\xeb.\x85\xf0\xa8\x17\xe9\x18\xb9y|\x1c\xce\xf8\xee'
p892
ssS'_usr_local_lib_python2_7_dist-packages_django_core_cache_backends___init__'
p893
(dp894
g6
(dp895
g8
S'_usr_local_lib_python2_7_dist-packages_django_core_cache_backends___init__.html'
p896
sg10
S'/usr/local/lib/python2.7/dist-packages/django/core/cache/backends/__init__'
p897
sg12
g13
(g14
g15
NtRp898
(dp899
g18
I1
sg19
I0
sg20
I0
sg21
I0
sg22
I0
sg23
I0
sg24
I0
sbssg25
S'\xb0\xc8pN\xaf>\xa0\xbaz\x144\xe0A9\xb8?'
p900
ssS'_usr_local_lib_python2_7_dist-packages_django_template_base'
p901
(dp902
g6
(dp903
g8
S'_usr_local_lib_python2_7_dist-packages_django_template_base.html'
p904
sg10
S'/usr/local/lib/python2.7/dist-packages/django/template/base'
p905
sg12
g13
(g14
g15
NtRp906
(dp907
g18
I1
sg19
I0
sg20
I785
sg21
I0
sg22
I0
sg23
I505
sg24
I0
sbssg25
S'\x05\xf2x\x99YY|c\xab\t-S\xb5\t\x17\xef'
p908
ssS'_usr_local_lib_python2_7_dist-packages_django_core_checks_security_csrf'
p909
(dp910
g6
(dp911
g8
S'_usr_local_lib_python2_7_dist-packages_django_core_checks_security_csrf.html'
p912
sg10
S'/usr/local/lib/python2.7/dist-packages/django/core/checks/security/csrf'
p913
sg12
g13
(g14
g15
NtRp914
(dp915
g18
I1
sg19
I0
sg20
I16
sg21
I0
sg22
I0
sg23
I7
sg24
I0
sbssg25
S"\xcd\xe7\x9b\xb9\xb9\x91gL\x9a\x06d`\x02h'\xe9"
p916
ssS'_usr_local_lib_python2_7_dist-packages_django_template_backends___init__'
p917
(dp918
g6
(dp919
g8
S'_usr_local_lib_python2_7_dist-packages_django_template_backends___init__.html'
p920
sg10
S'/usr/local/lib/python2.7/dist-packages/django/template/backends/__init__'
p921
sg12
g13
(g14
g15
NtRp922
(dp923
g18
I1
sg19
I0
sg20
I0
sg21
I0
sg22
I0
sg23
I0
sg24
I0
sbssg25
S'\xb0\xc8pN\xaf>\xa0\xbaz\x144\xe0A9\xb8?'
p924
ssS'_usr_local_lib_python2_7_dist-packages_django_core_management_commands___init__'
p925
(dp926
g6
(dp927
g8
S'_usr_local_lib_python2_7_dist-packages_django_core_management_commands___init__.html'
p928
sg10
S'/usr/local/lib/python2.7/dist-packages/django/core/management/commands/__init__'
p929
sg12
g13
(g14
g15
NtRp930
(dp931
g18
I1
sg19
I0
sg20
I0
sg21
I0
sg22
I0
sg23
I0
sg24
I0
sbssg25
S'\xb0\xc8pN\xaf>\xa0\xbaz\x144\xe0A9\xb8?'
p932
ssS'_usr_local_lib_python2_7_dist-packages_django_conf_global_settings'
p933
(dp934
g6
(dp935
g8
S'_usr_local_lib_python2_7_dist-packages_django_conf_global_settings.html'
p936
sg10
S'/usr/local/lib/python2.7/dist-packages/django/conf/global_settings'
p937
sg12
g13
(g14
g15
NtRp938
(dp939
g18
I1
sg19
I0
sg20
I136
sg21
I0
sg22
I0
sg23
I0
sg24
I0
sbssg25
S't\xfdE\xc2\xe6\xdd\xdc\xd8\x9aZ\x1a\x98\xd2\x9e\x9c\xf6'
p940
ssS'_usr_local_lib_python2_7_dist-packages_django_db_backends_mysql_compiler'
p941
(dp942
g6
(dp943
g8
S'_usr_local_lib_python2_7_dist-packages_django_db_backends_mysql_compiler.html'
p944
sg10
S'/usr/local/lib/python2.7/dist-packages/django/db/backends/mysql/compiler'
p945
sg12
g13
(g14
g15
NtRp946
(dp947
g18
I1
sg19
I0
sg20
I15
sg21
I0
sg22
I0
sg23
I4
sg24
I0
sbssg25
S'\xe0\x9f)\xcd\xbb\x97\xcc\xd9\x1b\x11\xdd\xe7=\n\xf6\x01'
p948
ssS'_usr_local_lib_python2_7_dist-packages_django_core_files_base'
p949
(dp950
g6
(dp951
g8
S'_usr_local_lib_python2_7_dist-packages_django_core_files_base.html'
p952
sg10
S'/usr/local/lib/python2.7/dist-packages/django/core/files/base'
p953
sg12
g13
(g14
g15
NtRp954
(dp955
g18
I1
sg19
I0
sg20
I119
sg21
I0
sg22
I0
sg23
I80
sg24
I0
sbssg25
S'k~F;\xb0\xa0\xcd8\x84e.R\xb9eM\x08'
p956
ssS'_usr_local_lib_python2_7_dist-packages_django_forms_forms'
p957
(dp958
g6
(dp959
g8
S'_usr_local_lib_python2_7_dist-packages_django_forms_forms.html'
p960
sg10
S'/usr/local/lib/python2.7/dist-packages/django/forms/forms'
p961
sg12
g13
(g14
g15
NtRp962
(dp963
g18
I1
sg19
I0
sg20
I354
sg21
I0
sg22
I0
sg23
I264
sg24
I0
sbssg25
S"\xc0+F\x99\x1eO\x9b\x0e\xd6U\x8f'0*2\xa0"
p964
ssS'_usr_local_lib_python2_7_dist-packages_django_contrib_admin_decorators'
p965
(dp966
g6
(dp967
g8
S'_usr_local_lib_python2_7_dist-packages_django_contrib_admin_decorators.html'
p968
sg10
S'/usr/local/lib/python2.7/dist-packages/django/contrib/admin/decorators'
p969
sg12
g13
(g14
g15
NtRp970
(dp971
g18
I1
sg19
I0
sg20
I12
sg21
I0
sg22
I0
sg23
I11
sg24
I0
sbssg25
S'\xedELQ\xae\x96\xa0\xb9n\xf1i\xf2`36\xe3'
p972
ssS'_usr_local_lib_python2_7_dist-packages_django_utils_translation___init__'
p973
(dp974
g6
(dp975
g8
S'_usr_local_lib_python2_7_dist-packages_django_utils_translation___init__.html'
p976
sg10
S'/usr/local/lib/python2.7/dist-packages/django/utils/translation/__init__'
p977
sg12
g13
(g14
g15
NtRp978
(dp979
g18
I1
sg19
I0
sg20
I119
sg21
I0
sg22
I0
sg23
I48
sg24
I0
sbssg25
S'\xeb\xea\xf475\xfa\xe2\xd3E\x93\xf1W\xd4\xf9A\t'
p980
ssS'_usr_local_lib_python2_7_dist-packages_django_utils_safestring'
p981
(dp982
g6
(dp983
g8
S'_usr_local_lib_python2_7_dist-packages_django_utils_safestring.html'
p984
sg10
S'/usr/local/lib/python2.7/dist-packages/django/utils/safestring'
p985
sg12
g13
(g14
g15
NtRp986
(dp987
g18
I1
sg19
I0
sg20
I63
sg21
I0
sg22
I0
sg23
I28
sg24
I0
sbssg25
S'G\xfb\x94\x0e\xe0\x1cT\xa9\xce\x106O\x80\xdb\xcb\x94'
p988
ssS'_usr_local_lib_python2_7_dist-packages_django_http_utils'
p989
(dp990
g6
(dp991
g8
S'_usr_local_lib_python2_7_dist-packages_django_http_utils.html'
p992
sg10
S'/usr/local/lib/python2.7/dist-packages/django/http/utils'
p993
sg12
g13
(g14
g15
NtRp994
(dp995
g18
I1
sg19
I0
sg20
I15
sg21
I0
sg22
I0
sg23
I8
sg24
I0
sbssg25
S'2\xd2\xfa\xb71`\x10\xc4\x11y\x075T\xab\xd5\xac'
p996
ssS'Election___init__'
p997
(dp998
g6
(dp999
g8
S'Election___init__.html'
p1000
sg10
S'Election/__init__'
p1001
sg12
g13
(g14
g15
NtRp1002
(dp1003
g18
I1
sg19
I0
sg20
I0
sg21
I0
sg22
I0
sg23
I0
sg24
I0
sbssg25
S'\xb0\xc8pN\xaf>\xa0\xbaz\x144\xe0A9\xb8?'
p1004
ssS'_usr_local_lib_python2_7_dist-packages_django_db_models_sql_query'
p1005
(dp1006
g6
(dp1007
g8
S'_usr_local_lib_python2_7_dist-packages_django_db_models_sql_query.html'
p1008
sg10
S'/usr/local/lib/python2.7/dist-packages/django/db/models/sql/query'
p1009
sg12
g13
(g14
g15
NtRp1010
(dp1011
g18
I1
sg19
I0
sg20
I1066
sg21
I0
sg22
I0
sg23
I624
sg24
I0
sbssg25
S'A\r\xf62[\x08_L\xb61eUg\xf7c\xa4'
p1012
ssS'_usr_local_lib_python2_7_dist-packages_django_utils_functional'
p1013
(dp1014
g6
(dp1015
g8
S'_usr_local_lib_python2_7_dist-packages_django_utils_functional.html'
p1016
sg10
S'/usr/local/lib/python2.7/dist-packages/django/utils/functional'
p1017
sg12
g13
(g14
g15
NtRp1018
(dp1019
g18
I1
sg19
I0
sg20
I231
sg21
I0
sg22
I0
sg23
I102
sg24
I0
sbssg25
S'j\xcd\r6\x15nt7\xb7@TB\x1a\x12d\x11'
p1020
ssS'_usr_local_lib_python2_7_dist-packages_django_contrib_admin_templatetags___init__'
p1021
(dp1022
g6
(dp1023
g8
S'_usr_local_lib_python2_7_dist-packages_django_contrib_admin_templatetags___init__.html'
p1024
sg10
S'/usr/local/lib/python2.7/dist-packages/django/contrib/admin/templatetags/__init__'
p1025
sg12
g13
(g14
g15
NtRp1026
(dp1027
g18
I1
sg19
I0
sg20
I0
sg21
I0
sg22
I0
sg23
I0
sg24
I0
sbssg25
S'\xb0\xc8pN\xaf>\xa0\xbaz\x144\xe0A9\xb8?'
p1028
ssS'_usr_local_lib_python2_7_dist-packages_django_db_backends_mysql_validation'
p1029
(dp1030
g6
(dp1031
g8
S'_usr_local_lib_python2_7_dist-packages_django_db_backends_mysql_validation.html'
p1032
sg10
S'/usr/local/lib/python2.7/dist-packages/django/db/backends/mysql/validation'
p1033
sg12
g13
(g14
g15
NtRp1034
(dp1035
g18
I1
sg19
I0
sg20
I13
sg21
I0
sg22
I0
sg23
I9
sg24
I0
sbssg25
S'\xd5jKT\xfd\x8fJU\xa2\xdb\x0fO\xee\xe4\xf5\xd5'
p1036
ssS'_usr_local_lib_python2_7_dist-packages_django_core_management_commands_migrate'
p1037
(dp1038
g6
(dp1039
g8
S'_usr_local_lib_python2_7_dist-packages_django_core_management_commands_migrate.html'
p1040
sg10
S'/usr/local/lib/python2.7/dist-packages/django/core/management/commands/migrate'
p1041
sg12
g13
(g14
g15
NtRp1042
(dp1043
g18
I1
sg19
I0
sg20
I197
sg21
I0
sg22
I0
sg23
I77
sg24
I0
sbssg25
S'-\xfev!>\x86\x8a\x9d\xea\xcf\xf2#\xbc\x8aH\x9f'
p1044
ssS'_usr_local_lib_python2_7_dist-packages_django_utils_html_parser'
p1045
(dp1046
g6
(dp1047
g8
S'_usr_local_lib_python2_7_dist-packages_django_utils_html_parser.html'
p1048
sg10
S'/usr/local/lib/python2.7/dist-packages/django/utils/html_parser'
p1049
sg12
g13
(g14
g15
NtRp1050
(dp1051
g18
I1
sg19
I0
sg20
I90
sg21
I0
sg22
I0
sg23
I80
sg24
I0
sbssg25
S'r\xa1\x9d\xc4\xe6b\xc2\x8d5\xcbg\xc7\xb3\xfc\xb7\xcd'
p1052
ssS'_usr_local_lib_python2_7_dist-packages_django_db_backends_base_features'
p1053
(dp1054
g6
(dp1055
g8
S'_usr_local_lib_python2_7_dist-packages_django_db_backends_base_features.html'
p1056
sg10
S'/usr/local/lib/python2.7/dist-packages/django/db/backends/base/features'
p1057
sg12
g13
(g14
g15
NtRp1058
(dp1059
g18
I1
sg19
I0
sg20
I97
sg21
I0
sg22
I0
sg23
I8
sg24
I0
sbssg25
S'G\xf0SM1\x85Mgu\xbae\xb7>h\x80\xab'
p1060
ssS'_usr_local_lib_python2_7_dist-packages_django_contrib_messages_storage_session'
p1061
(dp1062
g6
(dp1063
g8
S'_usr_local_lib_python2_7_dist-packages_django_contrib_messages_storage_session.html'
p1064
sg10
S'/usr/local/lib/python2.7/dist-packages/django/contrib/messages/storage/session'
p1065
sg12
g13
(g14
g15
NtRp1066
(dp1067
g18
I1
sg19
I0
sg20
I23
sg21
I0
sg22
I0
sg23
I10
sg24
I0
sbssg25
S'\x01X\xe7|\x1c\xf5M+\x96\xed\xc1\x19\x98-\x03\xe1'
p1068
ssS'_usr_local_lib_python2_7_dist-packages_django_apps_config'
p1069
(dp1070
g6
(dp1071
g8
S'_usr_local_lib_python2_7_dist-packages_django_apps_config.html'
p1072
sg10
S'/usr/local/lib/python2.7/dist-packages/django/apps/config'
p1073
sg12
g13
(g14
g15
NtRp1074
(dp1075
g18
I1
sg19
I0
sg20
I84
sg21
I0
sg22
I0
sg23
I21
sg24
I0
sbssg25
S'\xce\x1c\x8c\xaf\xf7t\x92\xe0v\xab\xfc\x8e\xe7\x8c\xb6\xf0'
p1076
ssS'_usr_local_lib_python2_7_dist-packages_django_db_models_sql_constants'
p1077
(dp1078
g6
(dp1079
g8
S'_usr_local_lib_python2_7_dist-packages_django_db_models_sql_constants.html'
p1080
sg10
S'/usr/local/lib/python2.7/dist-packages/django/db/models/sql/constants'
p1081
sg12
g13
(g14
g15
NtRp1082
(dp1083
g18
I1
sg19
I0
sg20
I11
sg21
I0
sg22
I0
sg23
I0
sg24
I0
sbssg25
S'\xea9\xbf\xc9ZC@Iim\x07\xfd6\x8aE\x91'
p1084
ssS'_usr_local_lib_python2_7_dist-packages_django_views_decorators_debug'
p1085
(dp1086
g6
(dp1087
g8
S'_usr_local_lib_python2_7_dist-packages_django_views_decorators_debug.html'
p1088
sg10
S'/usr/local/lib/python2.7/dist-packages/django/views/decorators/debug'
p1089
sg12
g13
(g14
g15
NtRp1090
(dp1091
g18
I1
sg19
I0
sg20
I21
sg21
I0
sg22
I0
sg23
I13
sg24
I0
sbssg25
S'%\x95J\xd11\x82{ay\x0ep\xc46\xc8\xbcB'
p1092
ssS'_usr_local_lib_python2_7_dist-packages_django_template___init__'
p1093
(dp1094
g6
(dp1095
g8
S'_usr_local_lib_python2_7_dist-packages_django_template___init__.html'
p1096
sg10
S'/usr/local/lib/python2.7/dist-packages/django/template/__init__'
p1097
sg12
g13
(g14
g15
NtRp1098
(dp1099
g18
I1
sg19
I0
sg20
I10
sg21
I0
sg22
I0
sg23
I0
sg24
I0
sbssg25
S'\xa7Lee\xc1\xe7i\xbd\x16F\x84\xbaJ\xd9\xd0\xfd'
p1100
ssS'_usr_local_lib_python2_7_dist-packages_django_contrib_contenttypes_models'
p1101
(dp1102
g6
(dp1103
g8
S'_usr_local_lib_python2_7_dist-packages_django_contrib_contenttypes_models.html'
p1104
sg10
S'/usr/local/lib/python2.7/dist-packages/django/contrib/contenttypes/models'
p1105
sg12
g13
(g14
g15
NtRp1106
(dp1107
g18
I1
sg19
I0
sg20
I116
sg21
I0
sg22
I0
sg23
I59
sg24
I0
sbssg25
S'\xf2,\x1eS\x96_\x8c^\xb3\x17\x98F\x83\trS'
p1108
ssS'Election_portal___init__'
p1109
(dp1110
g6
(dp1111
g8
S'Election_portal___init__.html'
p1112
sg10
S'Election_portal/__init__'
p1113
sg12
g13
(g14
g15
NtRp1114
(dp1115
g18
I1
sg19
I0
sg20
I0
sg21
I0
sg22
I0
sg23
I0
sg24
I0
sbssg25
S'\xb0\xc8pN\xaf>\xa0\xbaz\x144\xe0A9\xb8?'
p1116
ssS'_usr_local_lib_python2_7_dist-packages_django_db_backends_utils'
p1117
(dp1118
g6
(dp1119
g8
S'_usr_local_lib_python2_7_dist-packages_django_db_backends_utils.html'
p1120
sg10
S'/usr/local/lib/python2.7/dist-packages/django/db/backends/utils'
p1121
sg12
g13
(g14
g15
NtRp1122
(dp1123
g18
I1
sg19
I0
sg20
I128
sg21
I0
sg22
I0
sg23
I82
sg24
I0
sbssg25
S'\x00\xb6\xe3\xd07d{\x95w.\t\x1ckR\xa0D'
p1124
ssS'_usr_local_lib_python2_7_dist-packages_django_db_migrations_operations_models'
p1125
(dp1126
g6
(dp1127
g8
S'_usr_local_lib_python2_7_dist-packages_django_db_migrations_operations_models.html'
p1128
sg10
S'/usr/local/lib/python2.7/dist-packages/django/db/migrations/operations/models'
p1129
sg12
g13
(g14
g15
NtRp1130
(dp1131
g18
I1
sg19
I0
sg20
I290
sg21
I0
sg22
I0
sg23
I165
sg24
I0
sbssg25
S'M8E\x91t\xac\x03[\xed\x9a\x07\xce\x19\xea\x80\xe4'
p1132
ssS'_usr_local_lib_python2_7_dist-packages_django_db_models_signals'
p1133
(dp1134
g6
(dp1135
g8
S'_usr_local_lib_python2_7_dist-packages_django_db_models_signals.html'
p1136
sg10
S'/usr/local/lib/python2.7/dist-packages/django/db/models/signals'
p1137
sg12
g13
(g14
g15
NtRp1138
(dp1139
g18
I1
sg19
I0
sg20
I43
sg21
I0
sg22
I0
sg23
I15
sg24
I0
sbssg25
S'T\xbb\x8a\x88y\x8e\xc6\x17ag\x90\xd0\x18\xa3*+'
p1140
ssS'_usr_local_lib_python2_7_dist-packages_packaging___init__'
p1141
(dp1142
g6
(dp1143
g8
S'_usr_local_lib_python2_7_dist-packages_packaging___init__.html'
p1144
sg10
S'/usr/local/lib/python2.7/dist-packages/packaging/__init__'
p1145
sg12
g13
(g14
g15
NtRp1146
(dp1147
g18
I1
sg19
I0
sg20
I3
sg21
I0
sg22
I0
sg23
I0
sg24
I0
sbssg25
S'\xe6\xba7\xc0\x97\xa6\xdb.\xee\x124\x81\x94\t{\xb2'
p1148
ssS'_usr_local_lib_python2_7_dist-packages_django_core_checks_security_sessions'
p1149
(dp1150
g6
(dp1151
g8
S'_usr_local_lib_python2_7_dist-packages_django_core_checks_security_sessions.html'
p1152
sg10
S'/usr/local/lib/python2.7/dist-packages/django/core/checks/security/sessions'
p1153
sg12
g13
(g14
g15
NtRp1154
(dp1155
g18
I1
sg19
I0
sg20
I36
sg21
I0
sg22
I0
sg23
I20
sg24
I0
sbssg25
S'\xebH\xfb\xd9\xa5)6x\xdd\x1e\x86\x06\xb3o\x9a+'
p1156
ssS'_usr_local_lib_python2_7_dist-packages_django_core_checks_registry'
p1157
(dp1158
g6
(dp1159
g8
S'_usr_local_lib_python2_7_dist-packages_django_core_checks_registry.html'
p1160
sg10
S'/usr/local/lib/python2.7/dist-packages/django/core/checks/registry'
p1161
sg12
g13
(g14
g15
NtRp1162
(dp1163
g18
I1
sg19
I0
sg20
I51
sg21
I0
sg22
I0
sg23
I15
sg24
I0
sbssg25
S'\x02M\x9c\x93wj\xf0\x0b^\x96\xeeL\xbeg+\x85'
p1164
ssS'_usr_local_lib_python2_7_dist-packages_django_contrib_admin_sites'
p1165
(dp1166
g6
(dp1167
g8
S'_usr_local_lib_python2_7_dist-packages_django_contrib_admin_sites.html'
p1168
sg10
S'/usr/local/lib/python2.7/dist-packages/django/contrib/admin/sites'
p1169
sg12
g13
(g14
g15
NtRp1170
(dp1171
g18
I1
sg19
I0
sg20
I228
sg21
I0
sg22
I0
sg23
I132
sg24
I0
sbssg25
S'=\x9e\x03t\xa6\x8a\xbc5\xdc\xa8\xceH\xc3\xaf1\xb6'
p1172
ssS'Election_admin'
p1173
(dp1174
g6
(dp1175
g8
S'Election_admin.html'
p1176
sg10
S'Election/admin'
p1177
sg12
g13
(g14
g15
NtRp1178
(dp1179
g18
I1
sg19
I0
sg20
I1
sg21
I0
sg22
I0
sg23
I0
sg24
I0
sbssg25
S'\x14\xec\x85)6\x99\x0b\xb7\x18#GM\xddX\xce!'
p1180
ssS'_usr_local_lib_python2_7_dist-packages_django_core_checks_model_checks'
p1181
(dp1182
g6
(dp1183
g8
S'_usr_local_lib_python2_7_dist-packages_django_core_checks_model_checks.html'
p1184
sg10
S'/usr/local/lib/python2.7/dist-packages/django/core/checks/model_checks'
p1185
sg12
g13
(g14
g15
NtRp1186
(dp1187
g18
I1
sg19
I0
sg20
I28
sg21
I0
sg22
I0
sg23
I19
sg24
I0
sbssg25
S'\xd5\xfc\xd9\n\xd1\xbc\xfb\xb9\xc6=\x1f\x1f\x9c\x89^\xbc'
p1188
ssS'_usr_local_lib_python2_7_dist-packages_django_core_serializers___init__'
p1189
(dp1190
g6
(dp1191
g8
S'_usr_local_lib_python2_7_dist-packages_django_core_serializers___init__.html'
p1192
sg10
S'/usr/local/lib/python2.7/dist-packages/django/core/serializers/__init__'
p1193
sg12
g13
(g14
g15
NtRp1194
(dp1195
g18
I1
sg19
I0
sg20
I108
sg21
I0
sg22
I0
sg23
I23
sg24
I0
sbssg25
S'\x1a\xef\x93\x89\x1f\xd9=\xb0x\x92t..,*h'
p1196
ssS'_usr_local_lib_python2_7_dist-packages_django_contrib_sessions_apps'
p1197
(dp1198
g6
(dp1199
g8
S'_usr_local_lib_python2_7_dist-packages_django_contrib_sessions_apps.html'
p1200
sg10
S'/usr/local/lib/python2.7/dist-packages/django/contrib/sessions/apps'
p1201
sg12
g13
(g14
g15
NtRp1202
(dp1203
g18
I1
sg19
I0
sg20
I5
sg21
I0
sg22
I0
sg23
I0
sg24
I0
sbssg25
S'\x05\x9d\x1d\x1f5`\xe4\xa6\x9cMS\xb8\x96*r\x04'
p1204
ssS'Election_views'
p1205
(dp1206
g6
(dp1207
g70
S'Election_views.html'
p1208
sg72
S'Election/views'
p1209
sg74
g13
(g14
g15
NtRp1210
(dp1211
g18
I1
sg19
I0
sg20
I324
sg21
I0
sg22
I0
sg23
I269
sg24
I0
sbssg25
S'\x8bt\xc5%%,|\x8ed|?\x99\xe5\xa6\xad\x83'
p1212
ssS'_usr_local_lib_python2_7_dist-packages_django_contrib_admin_helpers'
p1213
(dp1214
g6
(dp1215
g8
S'_usr_local_lib_python2_7_dist-packages_django_contrib_admin_helpers.html'
p1216
sg10
S'/usr/local/lib/python2.7/dist-packages/django/contrib/admin/helpers'
p1217
sg12
g13
(g14
g15
NtRp1218
(dp1219
g18
I1
sg19
I0
sg20
I225
sg21
I0
sg22
I0
sg23
I161
sg24
I0
sbssg25
S'z\xba-\xf7\xc8\x88\xa6,\x8c\xc8`\xbc#F\xba\x89'
p1220
ssS'_usr_local_lib_python2_7_dist-packages_django_db_migrations_operations_fields'
p1221
(dp1222
g6
(dp1223
g8
S'_usr_local_lib_python2_7_dist-packages_django_db_migrations_operations_fields.html'
p1224
sg10
S'/usr/local/lib/python2.7/dist-packages/django/db/migrations/operations/fields'
p1225
sg12
g13
(g14
g15
NtRp1226
(dp1227
g18
I1
sg19
I0
sg20
I163
sg21
I0
sg22
I0
sg23
I67
sg24
I0
sbssg25
S'\xe2\xe1\x8e?p\xbe2\x04\xf1\xa5/\x13}\x1b\xd9n'
p1228
ssS'_usr_local_lib_python2_7_dist-packages_django_utils_six'
p1229
(dp1230
g6
(dp1231
g8
S'_usr_local_lib_python2_7_dist-packages_django_utils_six.html'
p1232
sg10
S'/usr/local/lib/python2.7/dist-packages/django/utils/six'
p1233
sg12
g13
(g14
g15
NtRp1234
(dp1235
g18
I1
sg19
I0
sg20
I442
sg21
I0
sg22
I0
sg23
I197
sg24
I0
sbssg25
S'?O\x10\xa9\xc5\xe8[\xeb\xfd*boQp\xe8h'
p1236
ssS'_usr_local_lib_python2_7_dist-packages_django_core_mail_backends_locmem'
p1237
(dp1238
g6
(dp1239
g8
S'_usr_local_lib_python2_7_dist-packages_django_core_mail_backends_locmem.html'
p1240
sg10
S'/usr/local/lib/python2.7/dist-packages/django/core/mail/backends/locmem'
p1241
sg12
g13
(g14
g15
NtRp1242
(dp1243
g18
I1
sg19
I0
sg20
I14
sg21
I0
sg22
I0
sg23
I7
sg24
I0
sbssg25
S'\xe5\xee\x16\xed\x15\xd0\x1d?!\xcfPT\xe1\xb6\x1b\xf7'
p1244
ssS'_usr_local_lib_python2_7_dist-packages_django_core_serializers_python'
p1245
(dp1246
g6
(dp1247
g8
S'_usr_local_lib_python2_7_dist-packages_django_core_serializers_python.html'
p1248
sg10
S'/usr/local/lib/python2.7/dist-packages/django/core/serializers/python'
p1249
sg12
g13
(g14
g15
NtRp1250
(dp1251
g18
I1
sg19
I0
sg20
I96
sg21
I0
sg22
I0
sg23
I64
sg24
I0
sbssg25
S"\xd3\xd1pDJ\xcbI\x0c'\xae\xcfH1\xdfzF"
p1252
ssS'_usr_local_lib_python2_7_dist-packages_django_utils_duration'
p1253
(dp1254
g6
(dp1255
g8
S'_usr_local_lib_python2_7_dist-packages_django_utils_duration.html'
p1256
sg10
S'/usr/local/lib/python2.7/dist-packages/django/utils/duration'
p1257
sg12
g13
(g14
g15
NtRp1258
(dp1259
g18
I1
sg19
I0
sg20
I14
sg21
I0
sg22
I0
sg23
I13
sg24
I0
sbssg25
S'\x01\xbc\xbdK"\xe9/\xb4\xe2\xe8\x04\x86P$>\xc4'
p1260
ssS'_usr_local_lib_python2_7_dist-packages_django_contrib_admin_migrations_0001_initial'
p1261
(dp1262
g6
(dp1263
g8
S'_usr_local_lib_python2_7_dist-packages_django_contrib_admin_migrations_0001_initial.html'
p1264
sg10
S'/usr/local/lib/python2.7/dist-packages/django/contrib/admin/migrations/0001_initial'
p1265
sg12
g13
(g14
g15
NtRp1266
(dp1267
g18
I1
sg19
I0
sg20
I7
sg21
I0
sg22
I0
sg23
I0
sg24
I0
sbssg25
S'\x9f\x95\x98\x9aKZu\x90\xbf\xd4T[\xcc5\xf3\xa3'
p1268
ssS'_usr_local_lib_python2_7_dist-packages_django_core_wsgi'
p1269
(dp1270
g6
(dp1271
g8
S'_usr_local_lib_python2_7_dist-packages_django_core_wsgi.html'
p1272
sg10
S'/usr/local/lib/python2.7/dist-packages/django/core/wsgi'
p1273
sg12
g13
(g14
g15
NtRp1274
(dp1275
g18
I1
sg19
I0
sg20
I5
sg21
I0
sg22
I0
sg23
I2
sg24
I0
sbssg25
S'\xf1tQ4\xb0\x8f=\xf6P\xf8\xaaM\xd0\x17\r9'
p1276
ssS'_usr_local_lib_python2_7_dist-packages_django_db_backends_mysql_base'
p1277
(dp1278
g6
(dp1279
g8
S'_usr_local_lib_python2_7_dist-packages_django_db_backends_mysql_base.html'
p1280
sg10
S'/usr/local/lib/python2.7/dist-packages/django/db/backends/mysql/base'
p1281
sg12
g13
(g14
g15
NtRp1282
(dp1283
g18
I1
sg19
I0
sg20
I171
sg21
I0
sg22
I0
sg23
I49
sg24
I0
sbssg25
S'~\xc0\x81b\x03\xf0aAD"u\x9d\xbb\x0fD\xff'
p1284
ssS'_usr_local_lib_python2_7_dist-packages_django_contrib_messages_storage_base'
p1285
(dp1286
g6
(dp1287
g8
S'_usr_local_lib_python2_7_dist-packages_django_contrib_messages_storage_base.html'
p1288
sg10
S'/usr/local/lib/python2.7/dist-packages/django/contrib/messages/storage/base'
p1289
sg12
g13
(g14
g15
NtRp1290
(dp1291
g18
I1
sg19
I0
sg20
I84
sg21
I0
sg22
I0
sg23
I47
sg24
I0
sbssg25
S'bNy\xef\x8fQ\x8e\xc7x\xffV8d\x1c-m'
p1292
ssS'_usr_local_lib_python2_7_dist-packages_django_contrib_auth_migrations___init__'
p1293
(dp1294
g6
(dp1295
g8
S'_usr_local_lib_python2_7_dist-packages_django_contrib_auth_migrations___init__.html'
p1296
sg10
S'/usr/local/lib/python2.7/dist-packages/django/contrib/auth/migrations/__init__'
p1297
sg12
g13
(g14
g15
NtRp1298
(dp1299
g18
I1
sg19
I0
sg20
I0
sg21
I0
sg22
I0
sg23
I0
sg24
I0
sbssg25
S'\xb0\xc8pN\xaf>\xa0\xbaz\x144\xe0A9\xb8?'
p1300
ssS'_usr_local_lib_python2_7_dist-packages_django_contrib_staticfiles_management___init__'
p1301
(dp1302
g6
(dp1303
g8
S'_usr_local_lib_python2_7_dist-packages_django_contrib_staticfiles_management___init__.html'
p1304
sg10
S'/usr/local/lib/python2.7/dist-packages/django/contrib/staticfiles/management/__init__'
p1305
sg12
g13
(g14
g15
NtRp1306
(dp1307
g18
I1
sg19
I0
sg20
I0
sg21
I0
sg22
I0
sg23
I0
sg24
I0
sbssg25
S'\xb0\xc8pN\xaf>\xa0\xbaz\x144\xe0A9\xb8?'
p1308
ssS'_usr_local_lib_python2_7_dist-packages_django_views_decorators_csrf'
p1309
(dp1310
g6
(dp1311
g8
S'_usr_local_lib_python2_7_dist-packages_django_views_decorators_csrf.html'
p1312
sg10
S'/usr/local/lib/python2.7/dist-packages/django/views/decorators/csrf'
p1313
sg12
g13
(g14
g15
NtRp1314
(dp1315
g18
I1
sg19
I0
sg20
I27
sg21
I0
sg22
I0
sg23
I5
sg24
I0
sbssg25
S'(\x0c^\xb6A\xf6\xa0\xcf\xfe4\x80\xae_6\xce%'
p1316
ssS'_usr_local_lib_python2_7_dist-packages_django_utils_dates'
p1317
(dp1318
g6
(dp1319
g8
S'_usr_local_lib_python2_7_dist-packages_django_utils_dates.html'
p1320
sg10
S'/usr/local/lib/python2.7/dist-packages/django/utils/dates'
p1321
sg12
g13
(g14
g15
NtRp1322
(dp1323
g18
I1
sg19
I0
sg20
I9
sg21
I0
sg22
I0
sg23
I0
sg24
I0
sbssg25
S'i\xc6\xb6\xe1ye0}\x15\xda\xc4\x1a)\xda\x8e|'
p1324
ssS'_usr_local_lib_python2_7_dist-packages_django_db_backends_base_schema'
p1325
(dp1326
g6
(dp1327
g8
S'_usr_local_lib_python2_7_dist-packages_django_db_backends_base_schema.html'
p1328
sg10
S'/usr/local/lib/python2.7/dist-packages/django/db/backends/base/schema'
p1329
sg12
g13
(g14
g15
NtRp1330
(dp1331
g18
I1
sg19
I0
sg20
I413
sg21
I0
sg22
I0
sg23
I157
sg24
I0
sbssg25
S'\xce&V$\xb5>\xa1v\xca\xeae\xc9\xc4\xbe2\xcb'
p1332
ssS'_usr_local_lib_python2_7_dist-packages_django_db_backends_mysql_introspection'
p1333
(dp1334
g6
(dp1335
g8
S'_usr_local_lib_python2_7_dist-packages_django_db_backends_mysql_introspection.html'
p1336
sg10
S'/usr/local/lib/python2.7/dist-packages/django/db/backends/mysql/introspection'
p1337
sg12
g13
(g14
g15
NtRp1338
(dp1339
g18
I1
sg19
I0
sg20
I87
sg21
I0
sg22
I0
sg23
I65
sg24
I0
sbssg25
S'\x04\xd8\x91x\xf3P2q\x95pMG\xdc\x89\x1bJ'
p1340
ssS'_usr_local_lib_python2_7_dist-packages_django_http_request'
p1341
(dp1342
g6
(dp1343
g70
S'_usr_local_lib_python2_7_dist-packages_django_http_request.html'
p1344
sg72
S'/usr/local/lib/python2.7/dist-packages/django/http/request'
p1345
sg74
g13
(g14
g15
NtRp1346
(dp1347
g18
I1
sg19
I0
sg20
I312
sg21
I0
sg22
I0
sg23
I200
sg24
I0
sbssg25
S'\x0b\x8ee6\xe1\xfaX\x81xT\xf4\x7f\xab\x1f\xacX'
p1348
ssS'_usr_local_lib_python2_7_dist-packages_django_db_backends_mysql_operations'
p1349
(dp1350
g6
(dp1351
g8
S'_usr_local_lib_python2_7_dist-packages_django_db_backends_mysql_operations.html'
p1352
sg10
S'/usr/local/lib/python2.7/dist-packages/django/db/backends/mysql/operations'
p1353
sg12
g13
(g14
g15
NtRp1354
(dp1355
g18
I1
sg19
I0
sg20
I126
sg21
I0
sg22
I0
sg23
I70
sg24
I0
sbssg25
S'l\xa0\x98\xd2@Z\xd0\xf9j\x9e]HBlm\xc0'
p1356
ssS'_usr_local_lib_python2_7_dist-packages_django_core_management_commands_createcachetable'
p1357
(dp1358
g6
(dp1359
g8
S'_usr_local_lib_python2_7_dist-packages_django_core_management_commands_createcachetable.html'
p1360
sg10
S'/usr/local/lib/python2.7/dist-packages/django/core/management/commands/createcachetable'
p1361
sg12
g13
(g14
g15
NtRp1362
(dp1363
g18
I1
sg19
I0
sg20
I61
sg21
I0
sg22
I0
sg23
I40
sg24
I0
sbssg25
S'\x1c\xd8%Ap\x1d0\xb7P\xfe\xba=\xadkG\x13'
p1364
ssS'_usr_local_lib_python2_7_dist-packages_django_utils_regex_helper'
p1365
(dp1366
g6
(dp1367
g8
S'_usr_local_lib_python2_7_dist-packages_django_utils_regex_helper.html'
p1368
sg10
S'/usr/local/lib/python2.7/dist-packages/django/utils/regex_helper'
p1369
sg12
g13
(g14
g15
NtRp1370
(dp1371
g18
I1
sg19
I0
sg20
I188
sg21
I0
sg22
I0
sg23
I131
sg24
I0
sbssg25
S'\xd4\xfe\xb3%\xb8\x08\xad#\x9eA]\xa5\xfa\xd2`P'
p1372
ssS'_usr_local_lib_python2_7_dist-packages_pytz_tzinfo'
p1373
(dp1374
g6
(dp1375
g8
S'_usr_local_lib_python2_7_dist-packages_pytz_tzinfo.html'
p1376
sg10
S'/usr/local/lib/python2.7/dist-packages/pytz/tzinfo'
p1377
sg12
g13
(g14
g15
NtRp1378
(dp1379
g18
I1
sg19
I0
sg20
I178
sg21
I0
sg22
I0
sg23
I126
sg24
I0
sbssg25
S'\x01%VyB\x18\x9dt5\ntb\x87g<\x92'
p1380
ssS'_usr_local_lib_python2_7_dist-packages_django_utils_http'
p1381
(dp1382
g6
(dp1383
g8
S'_usr_local_lib_python2_7_dist-packages_django_utils_http.html'
p1384
sg10
S'/usr/local/lib/python2.7/dist-packages/django/utils/http'
p1385
sg12
g13
(g14
g15
NtRp1386
(dp1387
g18
I1
sg19
I0
sg20
I138
sg21
I0
sg22
I0
sg23
I84
sg24
I0
sbssg25
S'\x14\xbf\x0b\xab\xbd\xb6=E}C\x96\xd17e\x04\xf3'
p1388
ssS'_usr_local_lib_python2_7_dist-packages_django_core_serializers_json'
p1389
(dp1390
g6
(dp1391
g8
S'_usr_local_lib_python2_7_dist-packages_django_core_serializers_json.html'
p1392
sg10
S'/usr/local/lib/python2.7/dist-packages/django/core/serializers/json'
p1393
sg12
g13
(g14
g15
NtRp1394
(dp1395
g18
I1
sg19
I0
sg20
I76
sg21
I0
sg22
I0
sg23
I36
sg24
I0
sbssg25
S'\xe8q\xd2N]\xb5:\x18\xff\xd9]yVJ3,'
p1396
ssS'_usr_local_lib_python2_7_dist-packages_django_contrib_admin_templatetags_admin_urls'
p1397
(dp1398
g6
(dp1399
g8
S'_usr_local_lib_python2_7_dist-packages_django_contrib_admin_templatetags_admin_urls.html'
p1400
sg10
S'/usr/local/lib/python2.7/dist-packages/django/contrib/admin/templatetags/admin_urls'
p1401
sg12
g13
(g14
g15
NtRp1402
(dp1403
g18
I1
sg19
I0
sg20
I38
sg21
I0
sg22
I0
sg23
I28
sg24
I0
sbssg25
S'l\xdc\xf3\xa1\xe2\x7f\xe4{\xcbg\x07\xdaQ\xe6\xecF'
p1404
ssS'_usr_local_lib_python2_7_dist-packages_django_utils_lorem_ipsum'
p1405
(dp1406
g6
(dp1407
g8
S'_usr_local_lib_python2_7_dist-packages_django_utils_lorem_ipsum.html'
p1408
sg10
S'/usr/local/lib/python2.7/dist-packages/django/utils/lorem_ipsum'
p1409
sg12
g13
(g14
g15
NtRp1410
(dp1411
g18
I1
sg19
I0
sg20
I31
sg21
I0
sg22
I0
sg23
I22
sg24
I0
sbssg25
S's\x98\xe5f*\x9a\x19\xfbYi\rP\x9d\xf5\x8bp'
p1412
ssS'_usr_local_lib_python2_7_dist-packages_django_utils_translation_trans_real'
p1413
(dp1414
g6
(dp1415
g8
S'_usr_local_lib_python2_7_dist-packages_django_utils_translation_trans_real.html'
p1416
sg10
S'/usr/local/lib/python2.7/dist-packages/django/utils/translation/trans_real'
p1417
sg12
g13
(g14
g15
NtRp1418
(dp1419
g18
I1
sg19
I0
sg20
I419
sg21
I0
sg22
I0
sg23
I274
sg24
I0
sbssg25
S'\\\x8c\xb7aG\\\xa9\x88Ak\x8a\x9f\x06r\xb8W'
p1420
ssS'_usr_local_lib_python2_7_dist-packages_django_core_handlers___init__'
p1421
(dp1422
g6
(dp1423
g8
S'_usr_local_lib_python2_7_dist-packages_django_core_handlers___init__.html'
p1424
sg10
S'/usr/local/lib/python2.7/dist-packages/django/core/handlers/__init__'
p1425
sg12
g13
(g14
g15
NtRp1426
(dp1427
g18
I1
sg19
I0
sg20
I0
sg21
I0
sg22
I0
sg23
I0
sg24
I0
sbssg25
S'\xb0\xc8pN\xaf>\xa0\xbaz\x144\xe0A9\xb8?'
p1428
ssS'_usr_local_lib_python2_7_dist-packages_django_template_loaders_base'
p1429
(dp1430
g6
(dp1431
g8
S'_usr_local_lib_python2_7_dist-packages_django_template_loaders_base.html'
p1432
sg10
S'/usr/local/lib/python2.7/dist-packages/django/template/loaders/base'
p1433
sg12
g13
(g14
g15
NtRp1434
(dp1435
g18
I1
sg19
I0
sg20
I20
sg21
I0
sg22
I0
sg23
I4
sg24
I0
sbssg25
S'\xb7\xfc\x94\xce\xae\x00\xddf\x9c\xed\xfcKGw\r\xea'
p1436
ssS'_usr_local_lib_python2_7_dist-packages_django_utils_baseconv'
p1437
(dp1438
g6
(dp1439
g8
S'_usr_local_lib_python2_7_dist-packages_django_utils_baseconv.html'
p1440
sg10
S'/usr/local/lib/python2.7/dist-packages/django/utils/baseconv'
p1441
sg12
g13
(g14
g15
NtRp1442
(dp1443
g18
I1
sg19
I0
sg20
I48
sg21
I0
sg22
I0
sg23
I25
sg24
I0
sbssg25
S'\xb9\x9eaD\x8d=\x88\x80N5+D\xfcID\x8e'
p1444
ssS'_usr_local_lib_python2_7_dist-packages_pytz___init__'
p1445
(dp1446
g6
(dp1447
g8
S'_usr_local_lib_python2_7_dist-packages_pytz___init__.html'
p1448
sg10
S'/usr/local/lib/python2.7/dist-packages/pytz/__init__'
p1449
sg12
g13
(g14
g15
NtRp1450
(dp1451
g18
I1
sg19
I0
sg20
I181
sg21
I0
sg22
I0
sg23
I109
sg24
I0
sbssg25
S"\ne\xf4\xfe'g\xbc\xe6.Db8d\x17\x95\xb5"
p1452
ssS'Election_migrations_0001_initial'
p1453
(dp1454
g6
(dp1455
g8
S'Election_migrations_0001_initial.html'
p1456
sg10
S'Election/migrations/0001_initial'
p1457
sg12
g13
(g14
g15
NtRp1458
(dp1459
g18
I1
sg19
I0
sg20
I5
sg21
I0
sg22
I0
sg23
I0
sg24
I0
sbssg25
S'\xbb\x08\xf4\xd1\xb3XK {\x06L:\x88(\x97\xa2'
p1460
ssS'_usr_local_lib_python2_7_dist-packages_django_utils_deprecation'
p1461
(dp1462
g6
(dp1463
g8
S'_usr_local_lib_python2_7_dist-packages_django_utils_deprecation.html'
p1464
sg10
S'/usr/local/lib/python2.7/dist-packages/django/utils/deprecation'
p1465
sg12
g13
(g14
g15
NtRp1466
(dp1467
g18
I1
sg19
I0
sg20
I38
sg21
I0
sg22
I0
sg23
I5
sg24
I0
sbssg25
S'\x9c`\xf7t\xed\x9fM\x8f\x93C\xe1\xef\xc7\xbe3\xa7'
p1468
ssS'_usr_local_lib_python2_7_dist-packages_django_contrib_auth_models'
p1469
(dp1470
g6
(dp1471
g8
S'_usr_local_lib_python2_7_dist-packages_django_contrib_auth_models.html'
p1472
sg10
S'/usr/local/lib/python2.7/dist-packages/django/contrib/auth/models'
p1473
sg12
g13
(g14
g15
NtRp1474
(dp1475
g18
I1
sg19
I0
sg20
I249
sg21
I0
sg22
I0
sg23
I108
sg24
I0
sbssg25
S'^\x86H\xde\x8bQ\xae\xbd+?\xc7T\xc41\x81G'
p1476
ssS'_usr_local_lib_python2_7_dist-packages_django_db_backends_base_introspection'
p1477
(dp1478
g6
(dp1479
g8
S'_usr_local_lib_python2_7_dist-packages_django_db_backends_base_introspection.html'
p1480
sg10
S'/usr/local/lib/python2.7/dist-packages/django/db/backends/base/introspection'
p1481
sg12
g13
(g14
g15
NtRp1482
(dp1483
g18
I1
sg19
I0
sg20
I75
sg21
I0
sg22
I0
sg23
I35
sg24
I0
sbssg25
S'\x8er%\x19\xfb:\xe5\x80}+\xa88\x92\x8b\\\x97'
p1484
ssS'_usr_local_lib_python2_7_dist-packages_django_core_files_move'
p1485
(dp1486
g6
(dp1487
g8
S'_usr_local_lib_python2_7_dist-packages_django_core_files_move.html'
p1488
sg10
S'/usr/local/lib/python2.7/dist-packages/django/core/files/move'
p1489
sg12
g13
(g14
g15
NtRp1490
(dp1491
g18
I1
sg19
I0
sg20
I37
sg21
I0
sg22
I0
sg23
I31
sg24
I0
sbssg25
S'\x91<\xde~\x0f\xdf\xb7\xf9vB\x8dg&|R\x86'
p1492
ssS'_usr_local_lib_python2_7_dist-packages_django_template_context_processors'
p1493
(dp1494
g6
(dp1495
g8
S'_usr_local_lib_python2_7_dist-packages_django_template_context_processors.html'
p1496
sg10
S'/usr/local/lib/python2.7/dist-packages/django/template/context_processors'
p1497
sg12
g13
(g14
g15
NtRp1498
(dp1499
g18
I1
sg19
I0
sg20
I35
sg21
I0
sg22
I0
sg23
I17
sg24
I0
sbssg25
S'y\x9eP\rI\x86\x07l\x10\xfbi\xcf\xf9\xca\x80\xdb'
p1500
ssS'_usr_local_lib_python2_7_dist-packages_django_contrib_contenttypes_management'
p1501
(dp1502
g6
(dp1503
g8
S'_usr_local_lib_python2_7_dist-packages_django_contrib_contenttypes_management.html'
p1504
sg10
S'/usr/local/lib/python2.7/dist-packages/django/contrib/contenttypes/management'
p1505
sg12
g13
(g14
g15
NtRp1506
(dp1507
g18
I1
sg19
I0
sg20
I37
sg21
I0
sg22
I0
sg23
I18
sg24
I0
sbssg25
S"a\xde'\xa1\xfb\xbbX\xd8\xdd\xab\x01\x10cB\xb1\x8c"
p1508
ssS'_usr_local_lib_python2_7_dist-packages_django_contrib_auth_decorators'
p1509
(dp1510
g6
(dp1511
g8
S'_usr_local_lib_python2_7_dist-packages_django_contrib_auth_decorators.html'
p1512
sg10
S'/usr/local/lib/python2.7/dist-packages/django/contrib/auth/decorators'
p1513
sg12
g13
(g14
g15
NtRp1514
(dp1515
g18
I1
sg19
I0
sg20
I38
sg21
I0
sg22
I0
sg23
I28
sg24
I0
sbssg25
S']m\xd5\x0bN>\x1a\x92\xcf\xe8C(@\xb8\x99\xda'
p1516
ssS'_usr_local_lib_python2_7_dist-packages_django_core_paginator'
p1517
(dp1518
g6
(dp1519
g8
S'_usr_local_lib_python2_7_dist-packages_django_core_paginator.html'
p1520
sg10
S'/usr/local/lib/python2.7/dist-packages/django/core/paginator'
p1521
sg12
g13
(g14
g15
NtRp1522
(dp1523
g18
I1
sg19
I0
sg20
I90
sg21
I0
sg22
I0
sg23
I57
sg24
I0
sbssg25
S'\x9b\rH\xc5\xb0\x92P\x1a\xec\x08b(\xa0W\xb6\x0e'
p1524
ssS'_usr_local_lib_python2_7_dist-packages_django_contrib_auth_migrations_0001_initial'
p1525
(dp1526
g6
(dp1527
g8
S'_usr_local_lib_python2_7_dist-packages_django_contrib_auth_migrations_0001_initial.html'
p1528
sg10
S'/usr/local/lib/python2.7/dist-packages/django/contrib/auth/migrations/0001_initial'
p1529
sg12
g13
(g14
g15
NtRp1530
(dp1531
g18
I1
sg19
I0
sg20
I8
sg21
I0
sg22
I0
sg23
I0
sg24
I0
sbssg25
S'\xf7\x14\xedF\x92\xb7\x9fU\n>!o\xe8+_\x17'
p1532
ssS'_usr_local_lib_python2_7_dist-packages_django_core_management_color'
p1533
(dp1534
g6
(dp1535
g8
S'_usr_local_lib_python2_7_dist-packages_django_core_management_color.html'
p1536
sg10
S'/usr/local/lib/python2.7/dist-packages/django/core/management/color'
p1537
sg12
g13
(g14
g15
NtRp1538
(dp1539
g18
I1
sg19
I0
sg20
I29
sg21
I0
sg22
I0
sg23
I2
sg24
I0
sbssg25
S'\x82J\x1d\xc6Y\xfc\x07\x15\\i\x06>W\x14\x02\x17'
p1540
ssS'_usr_local_lib_python2_7_dist-packages_django_core_serializers_xml_serializer'
p1541
(dp1542
g6
(dp1543
g8
S'_usr_local_lib_python2_7_dist-packages_django_core_serializers_xml_serializer.html'
p1544
sg10
S'/usr/local/lib/python2.7/dist-packages/django/core/serializers/xml_serializer'
p1545
sg12
g13
(g14
g15
NtRp1546
(dp1547
g18
I1
sg19
I0
sg20
I212
sg21
I0
sg22
I0
sg23
I165
sg24
I0
sbssg25
S'Z\x03F\x9a\xd2\xe9\x19!\x19Cs\x7f\xd6\xca\xfa\x95'
p1548
ssS'_usr_local_lib_python2_7_dist-packages_pytz_tzfile'
p1549
(dp1550
g6
(dp1551
g8
S'_usr_local_lib_python2_7_dist-packages_pytz_tzfile.html'
p1552
sg10
S'/usr/local/lib/python2.7/dist-packages/pytz/tzfile'
p1553
sg12
g13
(g14
g15
NtRp1554
(dp1555
g18
I1
sg19
I0
sg20
I81
sg21
I0
sg22
I0
sg23
I68
sg24
I0
sbssg25
S'\\\x8c\x10_\\\xf7Z\x98\x8f\x98\xeb\x0b&\x90\xa4\xfd'
p1556
ssS'_usr_local_lib_python2_7_dist-packages_django_http_cookie'
p1557
(dp1558
g6
(dp1559
g8
S'_usr_local_lib_python2_7_dist-packages_django_http_cookie.html'
p1560
sg10
S'/usr/local/lib/python2.7/dist-packages/django/http/cookie'
p1561
sg12
g13
(g14
g15
NtRp1562
(dp1563
g18
I1
sg19
I0
sg20
I62
sg21
I0
sg22
I0
sg23
I38
sg24
I0
sbssg25
S'0\x8bE{\x99\xa8\xe2"\x86\xfc\xa6\xcf\xa3\x0110'
p1564
ssS'_usr_local_lib_python2_7_dist-packages_django_middleware_clickjacking'
p1565
(dp1566
g6
(dp1567
g8
S'_usr_local_lib_python2_7_dist-packages_django_middleware_clickjacking.html'
p1568
sg10
S'/usr/local/lib/python2.7/dist-packages/django/middleware/clickjacking'
p1569
sg12
g13
(g14
g15
NtRp1570
(dp1571
g18
I1
sg19
I0
sg20
I11
sg21
I0
sg22
I0
sg23
I2
sg24
I0
sbssg25
S'=\x9dl\xe3\xe0\xd3\xfew\x1eY\x96\x14xEx\xe1'
p1572
ssS'_usr_local_lib_python2_7_dist-packages_django_utils___init__'
p1573
(dp1574
g6
(dp1575
g8
S'_usr_local_lib_python2_7_dist-packages_django_utils___init__.html'
p1576
sg10
S'/usr/local/lib/python2.7/dist-packages/django/utils/__init__'
p1577
sg12
g13
(g14
g15
NtRp1578
(dp1579
g18
I1
sg19
I0
sg20
I0
sg21
I0
sg22
I0
sg23
I0
sg24
I0
sbssg25
S'\xb0\xc8pN\xaf>\xa0\xbaz\x144\xe0A9\xb8?'
p1580
ssS'_usr_local_lib_python2_7_dist-packages_django_db_transaction'
p1581
(dp1582
g6
(dp1583
g8
S'_usr_local_lib_python2_7_dist-packages_django_db_transaction.html'
p1584
sg10
S'/usr/local/lib/python2.7/dist-packages/django/db/transaction'
p1585
sg12
g13
(g14
g15
NtRp1586
(dp1587
g18
I1
sg19
I0
sg20
I121
sg21
I0
sg22
I0
sg23
I53
sg24
I0
sbssg25
S'\xa6\x19\x8d\x16\xc2\x89\x10\xf1\xb8\xdd!,\xea\xcd\xe4\xcc'
p1588
ssS'_usr_local_lib_python2_7_dist-packages_django_template_loader'
p1589
(dp1590
g6
(dp1591
g70
S'_usr_local_lib_python2_7_dist-packages_django_template_loader.html'
p1592
sg72
S'/usr/local/lib/python2.7/dist-packages/django/template/loader'
p1593
sg74
g13
(g14
g15
NtRp1594
(dp1595
g18
I1
sg19
I0
sg20
I73
sg21
I0
sg22
I0
sg23
I49
sg24
I0
sbssg25
S'a\x9d\xdd\x03"0\x88\x94\x0cK\xdf\xdd\xdfe\xf6y'
p1596
ssS'_usr_local_lib_python2_7_dist-packages_django_forms_widgets'
p1597
(dp1598
g6
(dp1599
g8
S'_usr_local_lib_python2_7_dist-packages_django_forms_widgets.html'
p1600
sg10
S'/usr/local/lib/python2.7/dist-packages/django/forms/widgets'
p1601
sg12
g13
(g14
g15
NtRp1602
(dp1603
g18
I1
sg19
I0
sg20
I508
sg21
I0
sg22
I0
sg23
I305
sg24
I0
sbssg25
S'A\x1d,\x13-+\xd4$\x86 J\xc6\x15\\#\xee'
p1604
ssS'_usr_local_lib_python2_7_dist-packages_packaging__structures'
p1605
(dp1606
g6
(dp1607
g8
S'_usr_local_lib_python2_7_dist-packages_packaging__structures.html'
p1608
sg10
S'/usr/local/lib/python2.7/dist-packages/packaging/_structures'
p1609
sg12
g13
(g14
g15
NtRp1610
(dp1611
g18
I1
sg19
I0
sg20
I41
sg21
I0
sg22
I0
sg23
I17
sg24
I0
sbssg25
S'\x1b\xe4I;\xe8\x00D\xe6d?l\xf3\x94V\xe8s'
p1612
ssS'_usr_local_lib_python2_7_dist-packages_django_core_mail___init__'
p1613
(dp1614
g6
(dp1615
g70
S'_usr_local_lib_python2_7_dist-packages_django_core_mail___init__.html'
p1616
sg72
S'/usr/local/lib/python2.7/dist-packages/django/core/mail/__init__'
p1617
sg74
g13
(g14
g15
NtRp1618
(dp1619
g18
I1
sg19
I0
sg20
I33
sg21
I0
sg22
I0
sg23
I22
sg24
I0
sbssg25
S'\x0b\xec~\x01VJ\x10\x14\xe9-\xf8]Y\x16I\xc8'
p1620
ssS'_usr_local_lib_python2_7_dist-packages_django_utils_dateformat'
p1621
(dp1622
g6
(dp1623
g8
S'_usr_local_lib_python2_7_dist-packages_django_utils_dateformat.html'
p1624
sg10
S'/usr/local/lib/python2.7/dist-packages/django/utils/dateformat'
p1625
sg12
g13
(g14
g15
NtRp1626
(dp1627
g18
I1
sg19
I0
sg20
I184
sg21
I0
sg22
I0
sg23
I124
sg24
I0
sbssg25
S'l!\xd4\xa7\xb5\xa3\x1a\x9b\xd1\xd7\x86C\x07\xde~\xc6'
p1628
ssS'_usr_local_lib_python2_7_dist-packages_django_contrib_contenttypes_migrations___init__'
p1629
(dp1630
g6
(dp1631
g8
S'_usr_local_lib_python2_7_dist-packages_django_contrib_contenttypes_migrations___init__.html'
p1632
sg10
S'/usr/local/lib/python2.7/dist-packages/django/contrib/contenttypes/migrations/__init__'
p1633
sg12
g13
(g14
g15
NtRp1634
(dp1635
g18
I1
sg19
I0
sg20
I0
sg21
I0
sg22
I0
sg23
I0
sg24
I0
sbssg25
S'\xb0\xc8pN\xaf>\xa0\xbaz\x144\xe0A9\xb8?'
p1636
ssS'_usr_local_lib_python2_7_dist-packages_django_views_static'
p1637
(dp1638
g6
(dp1639
g8
S'_usr_local_lib_python2_7_dist-packages_django_views_static.html'
p1640
sg10
S'/usr/local/lib/python2.7/dist-packages/django/views/static'
p1641
sg12
g13
(g14
g15
NtRp1642
(dp1643
g18
I1
sg19
I0
sg20
I73
sg21
I0
sg22
I0
sg23
I57
sg24
I0
sbssg25
S'S\xecU\xb3\xb9\x91&\xd5X\x0b\xc5!\xe68\x8e\x82'
p1644
ssS'_usr_local_lib_python2_7_dist-packages_django_dispatch_weakref_backports'
p1645
(dp1646
g6
(dp1647
g8
S'_usr_local_lib_python2_7_dist-packages_django_dispatch_weakref_backports.html'
p1648
sg10
S'/usr/local/lib/python2.7/dist-packages/django/dispatch/weakref_backports'
p1649
sg12
g13
(g14
g15
NtRp1650
(dp1651
g18
I1
sg19
I0
sg20
I40
sg21
I0
sg22
I0
sg23
I18
sg24
I0
sbssg25
S'\x94c V\xe8\xd2>\xc4\xc3\x88\x850@\x95\xea\x19'
p1652
ssS'_usr_local_lib_python2_7_dist-packages_MySQLdb_cursors'
p1653
(dp1654
g6
(dp1655
g8
S'_usr_local_lib_python2_7_dist-packages_MySQLdb_cursors.html'
p1656
sg10
S'/usr/local/lib/python2.7/dist-packages/MySQLdb/cursors'
p1657
sg12
g13
(g14
g15
NtRp1658
(dp1659
g18
I1
sg19
I0
sg20
I276
sg21
I0
sg22
I0
sg23
I125
sg24
I0
sbssg25
S'\x90b\xe5\xbc!\x8b\x84q\x8f\xbey\xd1\x8f\x0e\x9b\xac'
p1660
ssS'_usr_local_lib_python2_7_dist-packages_django_db_migrations_operations_special'
p1661
(dp1662
g6
(dp1663
g8
S'_usr_local_lib_python2_7_dist-packages_django_db_migrations_operations_special.html'
p1664
sg10
S'/usr/local/lib/python2.7/dist-packages/django/db/migrations/operations/special'
p1665
sg12
g13
(g14
g15
NtRp1666
(dp1667
g18
I1
sg19
I0
sg20
I117
sg21
I0
sg22
I0
sg23
I76
sg24
I0
sbssg25
S']\x96\x91jZ\x82\xd1\xae\xe7\xf0\xd8\x8cR\x80\x8b\x02'
p1668
ssS'_usr_local_lib_python2_7_dist-packages_django_conf___init__'
p1669
(dp1670
g6
(dp1671
g8
S'_usr_local_lib_python2_7_dist-packages_django_conf___init__.html'
p1672
sg10
S'/usr/local/lib/python2.7/dist-packages/django/conf/__init__'
p1673
sg12
g13
(g14
g15
NtRp1674
(dp1675
g18
I1
sg19
I0
sg20
I87
sg21
I0
sg22
I0
sg23
I29
sg24
I0
sbssg25
S'IC\x92\xa1J\xdf\x97\xcc\x93|\x0b]\xba\xc8\xb6:'
p1676
ssS'_usr_local_lib_python2_7_dist-packages_django_contrib_sessions_backends___init__'
p1677
(dp1678
g6
(dp1679
g8
S'_usr_local_lib_python2_7_dist-packages_django_contrib_sessions_backends___init__.html'
p1680
sg10
S'/usr/local/lib/python2.7/dist-packages/django/contrib/sessions/backends/__init__'
p1681
sg12
g13
(g14
g15
NtRp1682
(dp1683
g18
I1
sg19
I0
sg20
I0
sg21
I0
sg22
I0
sg23
I0
sg24
I0
sbssg25
S'\xb0\xc8pN\xaf>\xa0\xbaz\x144\xe0A9\xb8?'
p1684
ssS'_usr_local_lib_python2_7_dist-packages_django_contrib_contenttypes_migrations_0002_remove_content_type_name'
p1685
(dp1686
g6
(dp1687
g8
S'_usr_local_lib_python2_7_dist-packages_django_contrib_contenttypes_migrations_0002_remove_content_type_name.html'
p1688
sg10
S'/usr/local/lib/python2.7/dist-packages/django/contrib/contenttypes/migrations/0002_remove_content_type_name'
p1689
sg12
g13
(g14
g15
NtRp1690
(dp1691
g18
I1
sg19
I0
sg20
I13
sg21
I0
sg22
I0
sg23
I7
sg24
I0
sbssg25
S'\xeb\xc4\xb9d\x13\xee\xaa\xf4\xaap\xeckG\xd1\xccq'
p1692
ssS'_usr_local_lib_python2_7_dist-packages_django_test_html'
p1693
(dp1694
g6
(dp1695
g8
S'_usr_local_lib_python2_7_dist-packages_django_test_html.html'
p1696
sg10
S'/usr/local/lib/python2.7/dist-packages/django/test/html'
p1697
sg12
g13
(g14
g15
NtRp1698
(dp1699
g18
I1
sg19
I0
sg20
I166
sg21
I0
sg22
I0
sg23
I128
sg24
I0
sbssg25
S'\xfd!\x02\\\x84\xcbY0U\xc9\xc3\xe3<\xa3\x88)'
p1700
ssS'_usr_local_lib_python2_7_dist-packages_django_utils_timezone'
p1701
(dp1702
g6
(dp1703
g8
S'_usr_local_lib_python2_7_dist-packages_django_utils_timezone.html'
p1704
sg10
S'/usr/local/lib/python2.7/dist-packages/django/utils/timezone'
p1705
sg12
g13
(g14
g15
NtRp1706
(dp1707
g18
I1
sg19
I0
sg20
I147
sg21
I0
sg22
I0
sg23
I92
sg24
I0
sbssg25
S"\xa8\x03\x05\xb5\x92b\xce\x00V'\xc4\n{\xda.\xc6"
p1708
ssS'_usr_local_lib_python2_7_dist-packages_django_core_servers_basehttp'
p1709
(dp1710
g6
(dp1711
g8
S'_usr_local_lib_python2_7_dist-packages_django_core_servers_basehttp.html'
p1712
sg10
S'/usr/local/lib/python2.7/dist-packages/django/core/servers/basehttp'
p1713
sg12
g13
(g14
g15
NtRp1714
(dp1715
g18
I1
sg19
I0
sg20
I106
sg21
I0
sg22
I0
sg23
I76
sg24
I0
sbssg25
S'Y\xb0\x92\xf3r\x05\x0f\xb1\x81\xd9\x85\x9f{O*\r'
p1716
ssS'_usr_local_lib_python2_7_dist-packages_packaging_specifiers'
p1717
(dp1718
g6
(dp1719
g8
S'_usr_local_lib_python2_7_dist-packages_packaging_specifiers.html'
p1720
sg10
S'/usr/local/lib/python2.7/dist-packages/packaging/specifiers'
p1721
sg12
g13
(g14
g15
NtRp1722
(dp1723
g18
I1
sg19
I0
sg20
I284
sg21
I0
sg22
I0
sg23
I202
sg24
I0
sbssg25
S'\x95UVUp]l\xfb\x84\xae\x05:\x0c77\xc1'
p1724
ssS'_usr_local_lib_python2_7_dist-packages_packaging_markers'
p1725
(dp1726
g6
(dp1727
g8
S'_usr_local_lib_python2_7_dist-packages_packaging_markers.html'
p1728
sg10
S'/usr/local/lib/python2.7/dist-packages/packaging/markers'
p1729
sg12
g13
(g14
g15
NtRp1730
(dp1731
g18
I1
sg19
I0
sg20
I130
sg21
I0
sg22
I0
sg23
I73
sg24
I0
sbssg25
S'\xc8h\x19\xa4\xd7\x81\x0eF\x82\xa7\x08\xce\x81\x04\xfeJ'
p1732
ssS'_usr_local_lib_python2_7_dist-packages_django_core_files_images'
p1733
(dp1734
g6
(dp1735
g8
S'_usr_local_lib_python2_7_dist-packages_django_core_files_images.html'
p1736
sg10
S'/usr/local/lib/python2.7/dist-packages/django/core/files/images'
p1737
sg12
g13
(g14
g15
NtRp1738
(dp1739
g18
I1
sg19
I0
sg20
I43
sg21
I0
sg22
I0
sg23
I34
sg24
I0
sbssg25
S'\xd8\x08F\xdc\x9c\x1b\r\xa2\xb13\xb0\xc1Q\xc6\x90\xce'
p1740
ssS'_usr_local_lib_python2_7_dist-packages_django_db_utils'
p1741
(dp1742
g6
(dp1743
g8
S'_usr_local_lib_python2_7_dist-packages_django_db_utils.html'
p1744
sg10
S'/usr/local/lib/python2.7/dist-packages/django/db/utils'
p1745
sg12
g13
(g14
g15
NtRp1746
(dp1747
g18
I1
sg19
I0
sg20
I217
sg21
I0
sg22
I0
sg23
I77
sg24
I0
sbssg25
S'\x8e#\xc20x\x94 \x1be\xa6\x17D m\xed\xbd'
p1748
ssS'_usr_local_lib_python2_7_dist-packages_django_core_management_commands_loaddata'
p1749
(dp1750
g6
(dp1751
g8
S'_usr_local_lib_python2_7_dist-packages_django_core_management_commands_loaddata.html'
p1752
sg10
S'/usr/local/lib/python2.7/dist-packages/django/core/management/commands/loaddata'
p1753
sg12
g13
(g14
g15
NtRp1754
(dp1755
g18
I1
sg19
I0
sg20
I181
sg21
I0
sg22
I0
sg23
I70
sg24
I0
sbssg25
S'4\xfd\x05P\xf8\xf7\xed\xb7Pt[<\xf8\xc1\x15\x1c'
p1756
ssS'_usr_local_lib_python2_7_dist-packages_django_contrib_messages_utils'
p1757
(dp1758
g6
(dp1759
g8
S'_usr_local_lib_python2_7_dist-packages_django_contrib_messages_utils.html'
p1760
sg10
S'/usr/local/lib/python2.7/dist-packages/django/contrib/messages/utils'
p1761
sg12
g13
(g14
g15
NtRp1762
(dp1763
g18
I1
sg19
I0
sg20
I6
sg21
I0
sg22
I0
sg23
I0
sg24
I0
sbssg25
S'\x8e\xc7\xac\x98\xd8\x97}YJ\xae\xe1\x07\xa0\x03\xca\xd0'
p1764
ssS'_usr_local_lib_python2_7_dist-packages_django_db_migrations_operations_base'
p1765
(dp1766
g6
(dp1767
g8
S'_usr_local_lib_python2_7_dist-packages_django_db_migrations_operations_base.html'
p1768
sg10
S'/usr/local/lib/python2.7/dist-packages/django/db/migrations/operations/base'
p1769
sg12
g13
(g14
g15
NtRp1770
(dp1771
g18
I1
sg19
I0
sg20
I31
sg21
I0
sg22
I0
sg23
I9
sg24
I0
sbssg25
S'iu`\xb6\x83{\xe2\xe5l\x9c\x01\xe3\xe0\x1b\x1f\x85'
p1772
ssS'_usr_local_lib_python2_7_dist-packages_django_db_models_sql_datastructures'
p1773
(dp1774
g6
(dp1775
g8
S'_usr_local_lib_python2_7_dist-packages_django_db_models_sql_datastructures.html'
p1776
sg10
S'/usr/local/lib/python2.7/dist-packages/django/db/models/sql/datastructures'
p1777
sg12
g13
(g14
g15
NtRp1778
(dp1779
g18
I1
sg19
I0
sg20
I65
sg21
I0
sg22
I0
sg23
I17
sg24
I0
sbssg25
S'\xb2\xfa\xb4\x13|r\xf8\xb9\xd0w\xb6\x9f\x9e\x9b\xb0\xee'
p1780
ssS'Election_portal_settings'
p1781
(dp1782
g6
(dp1783
g8
S'Election_portal_settings.html'
p1784
sg10
S'Election_portal/settings'
p1785
sg12
g13
(g14
g15
NtRp1786
(dp1787
g18
I1
sg19
I0
sg20
I18
sg21
I0
sg22
I0
sg23
I0
sg24
I0
sbssg25
S'\x061]\x84\x15\xe8\x11\xbe[@NG\xfe\x85\xc0<'
p1788
ssS'_usr_local_lib_python2_7_dist-packages_django_contrib_contenttypes_migrations_0001_initial'
p1789
(dp1790
g6
(dp1791
g8
S'_usr_local_lib_python2_7_dist-packages_django_contrib_contenttypes_migrations_0001_initial.html'
p1792
sg10
S'/usr/local/lib/python2.7/dist-packages/django/contrib/contenttypes/migrations/0001_initial'
p1793
sg12
g13
(g14
g15
NtRp1794
(dp1795
g18
I1
sg19
I0
sg20
I6
sg21
I0
sg22
I0
sg23
I0
sg24
I0
sbssg25
S'\xb6Z\t\xcc\xf6\xb1\xa7\x8fu\x9a|\xe737\x1d\xbf'
p1796
ssS'_usr_local_lib_python2_7_dist-packages_django_contrib_admin_options'
p1797
(dp1798
g6
(dp1799
g8
S'_usr_local_lib_python2_7_dist-packages_django_contrib_admin_options.html'
p1800
sg10
S'/usr/local/lib/python2.7/dist-packages/django/contrib/admin/options'
p1801
sg12
g13
(g14
g15
NtRp1802
(dp1803
g18
I1
sg19
I0
sg20
I993
sg21
I0
sg22
I0
sg23
I768
sg24
I0
sbssg25
S't\xa2/\xf4\xdc{\xb6Pt\x93{\xf9\xfcV\x13\x90'
p1804
ssS'_usr_local_lib_python2_7_dist-packages_django_db_models_constants'
p1805
(dp1806
g6
(dp1807
g8
S'_usr_local_lib_python2_7_dist-packages_django_db_models_constants.html'
p1808
sg10
S'/usr/local/lib/python2.7/dist-packages/django/db/models/constants'
p1809
sg12
g13
(g14
g15
NtRp1810
(dp1811
g18
I1
sg19
I0
sg20
I1
sg21
I0
sg22
I0
sg23
I0
sg24
I0
sbssg25
S'\xb9g\xea"\xa4\xe6,\x8a\xed<\xce\xce_\x8fz\x0f'
p1812
ssS'_usr_local_lib_python2_7_dist-packages_django_contrib_sessions_middleware'
p1813
(dp1814
g6
(dp1815
g8
S'_usr_local_lib_python2_7_dist-packages_django_contrib_sessions_middleware.html'
p1816
sg10
S'/usr/local/lib/python2.7/dist-packages/django/contrib/sessions/middleware'
p1817
sg12
g13
(g14
g15
NtRp1818
(dp1819
g18
I1
sg19
I0
sg20
I34
sg21
I0
sg22
I0
sg23
I12
sg24
I0
sbssg25
S'\xf3\xb2${FS\xbc\xa89m\xfe\x82a\xd2\xaa/'
p1820
ssS'_usr_local_lib_python2_7_dist-packages_MySQLdb_times'
p1821
(dp1822
g6
(dp1823
g8
S'_usr_local_lib_python2_7_dist-packages_MySQLdb_times.html'
p1824
sg10
S'/usr/local/lib/python2.7/dist-packages/MySQLdb/times'
p1825
sg12
g13
(g14
g15
NtRp1826
(dp1827
g18
I1
sg19
I0
sg20
I87
sg21
I0
sg22
I0
sg23
I64
sg24
I0
sbssg25
S'\x07\x1dH\x9f\x1d\xbdMP\x00\x1d\x9b\xde\x994.u'
p1828
ssS'_usr_local_lib_python2_7_dist-packages_django_db_models_expressions'
p1829
(dp1830
g6
(dp1831
g8
S'_usr_local_lib_python2_7_dist-packages_django_db_models_expressions.html'
p1832
sg10
S'/usr/local/lib/python2.7/dist-packages/django/db/models/expressions'
p1833
sg12
g13
(g14
g15
NtRp1834
(dp1835
g18
I1
sg19
I0
sg20
I573
sg21
I0
sg22
I0
sg23
I353
sg24
I0
sbssg25
S'\xd9\xe8\xcb<\xef\xd4\xc5A\xa2\x97\x05l@\xc1\x89L'
p1836
ssS'_usr_local_lib_python2_7_dist-packages_django_contrib_auth_apps'
p1837
(dp1838
g6
(dp1839
g8
S'_usr_local_lib_python2_7_dist-packages_django_contrib_auth_apps.html'
p1840
sg10
S'/usr/local/lib/python2.7/dist-packages/django/contrib/auth/apps'
p1841
sg12
g13
(g14
g15
NtRp1842
(dp1843
g18
I1
sg19
I0
sg20
I12
sg21
I0
sg22
I0
sg23
I0
sg24
I0
sbssg25
S'\xc0\x0b\xde\x0b\x8e\x1e\xdc\x06\xban"\xd9\xb1\x00\x1fK'
p1844
ssS'_usr_local_lib_python2_7_dist-packages_django_contrib_admin_utils'
p1845
(dp1846
g6
(dp1847
g8
S'_usr_local_lib_python2_7_dist-packages_django_contrib_admin_utils.html'
p1848
sg10
S'/usr/local/lib/python2.7/dist-packages/django/contrib/admin/utils'
p1849
sg12
g13
(g14
g15
NtRp1850
(dp1851
g18
I1
sg19
I0
sg20
I298
sg21
I0
sg22
I0
sg23
I240
sg24
I0
sbssg25
S'\xe3\xf7)W4\xf5\xa0\r\xf6OQx(\x06\xd2\xe1'
p1852
ssS'_usr_local_lib_python2_7_dist-packages_django_contrib_admin_filters'
p1853
(dp1854
g6
(dp1855
g8
S'_usr_local_lib_python2_7_dist-packages_django_contrib_admin_filters.html'
p1856
sg10
S'/usr/local/lib/python2.7/dist-packages/django/contrib/admin/filters'
p1857
sg12
g13
(g14
g15
NtRp1858
(dp1859
g18
I1
sg19
I0
sg20
I197
sg21
I0
sg22
I0
sg23
I132
sg24
I0
sbssg25
S'\x07\xc4\x16cW\xb2\xdc?\x06\xe62\xa2\xad\x04y7'
p1860
ssS'_usr_local_lib_python2_7_dist-packages_django_conf_locale___init__'
p1861
(dp1862
g6
(dp1863
g8
S'_usr_local_lib_python2_7_dist-packages_django_conf_locale___init__.html'
p1864
sg10
S'/usr/local/lib/python2.7/dist-packages/django/conf/locale/__init__'
p1865
sg12
g13
(g14
g15
NtRp1866
(dp1867
g18
I1
sg19
I0
sg20
I2
sg21
I0
sg22
I0
sg23
I0
sg24
I0
sbssg25
S'7\xc1\xd1QPC\x97\x8eT\xdb\xfbt\xbby&\x8f'
p1868
ssS'_usr_local_lib_python2_7_dist-packages_django_db_models_fields_subclassing'
p1869
(dp1870
g6
(dp1871
g8
S'_usr_local_lib_python2_7_dist-packages_django_db_models_fields_subclassing.html'
p1872
sg10
S'/usr/local/lib/python2.7/dist-packages/django/db/models/fields/subclassing'
p1873
sg12
g13
(g14
g15
NtRp1874
(dp1875
g18
I1
sg19
I0
sg20
I24
sg21
I0
sg22
I0
sg23
I15
sg24
I0
sbssg25
S'\xear\x9f:\xc8\x91\x13)\x8d\xf1\x85_\xd0b"C'
p1876
ssS'_usr_local_lib_python2_7_dist-packages_django_db_models_sql_where'
p1877
(dp1878
g6
(dp1879
g8
S'_usr_local_lib_python2_7_dist-packages_django_db_models_sql_where.html'
p1880
sg10
S'/usr/local/lib/python2.7/dist-packages/django/db/models/sql/where'
p1881
sg12
g13
(g14
g15
NtRp1882
(dp1883
g18
I1
sg19
I0
sg20
I243
sg21
I0
sg22
I0
sg23
I165
sg24
I0
sbssg25
S'\x86]\x01\x1b\xb8\x93\x17\xd3i\x93\xa1\x01\x16=\x96k'
p1884
ssS'_usr_local_lib_python2_7_dist-packages_django_db_models_fields_proxy'
p1885
(dp1886
g6
(dp1887
g8
S'_usr_local_lib_python2_7_dist-packages_django_db_models_fields_proxy.html'
p1888
sg10
S'/usr/local/lib/python2.7/dist-packages/django/db/models/fields/proxy'
p1889
sg12
g13
(g14
g15
NtRp1890
(dp1891
g18
I1
sg19
I0
sg20
I10
sg21
I0
sg22
I0
sg23
I6
sg24
I0
sbssg25
S'\xdfIF\x9a8\x04\x87\x8d\x99=\xbek\xbf\xd0\x85\xf5'
p1892
ssS'_usr_local_lib_python2_7_dist-packages_django_db_backends_base_creation'
p1893
(dp1894
g6
(dp1895
g8
S'_usr_local_lib_python2_7_dist-packages_django_db_backends_base_creation.html'
p1896
sg10
S'/usr/local/lib/python2.7/dist-packages/django/db/backends/base/creation'
p1897
sg12
g13
(g14
g15
NtRp1898
(dp1899
g18
I1
sg19
I0
sg20
I285
sg21
I0
sg22
I0
sg23
I184
sg24
I0
sbssg25
S'\x10\x91]=\x91z\x00\x1d\x19G\xc5\xb7\x06\xf8\x90o'
p1900
ssS'_usr_local_lib_python2_7_dist-packages_django_contrib_messages_storage_cookie'
p1901
(dp1902
g6
(dp1903
g8
S'_usr_local_lib_python2_7_dist-packages_django_contrib_messages_storage_cookie.html'
p1904
sg10
S'/usr/local/lib/python2.7/dist-packages/django/contrib/messages/storage/cookie'
p1905
sg12
g13
(g14
g15
NtRp1906
(dp1907
g18
I1
sg19
I0
sg20
I83
sg21
I0
sg22
I0
sg23
I60
sg24
I0
sbssg25
S'\x04\x8b\xa7\xdf\xf07\xeeL\xeb"`v]\xf4\x8e9'
p1908
ssS'_usr_local_lib_python2_7_dist-packages_django_db_models_query'
p1909
(dp1910
g6
(dp1911
g8
S'_usr_local_lib_python2_7_dist-packages_django_db_models_query.html'
p1912
sg10
S'/usr/local/lib/python2.7/dist-packages/django/db/models/query'
p1913
sg12
g13
(g14
g15
NtRp1914
(dp1915
g18
I1
sg19
I0
sg20
I917
sg21
I0
sg22
I0
sg23
I604
sg24
I0
sbssg25
S'\x91\xae\xec\xef\xbd\xec\x91\x19\xc8X\x18\xc3\x03?\xa9\xda'
p1916
ssS'_usr_local_lib_python2_7_dist-packages_django_contrib_auth_hashers'
p1917
(dp1918
g6
(dp1919
g8
S'_usr_local_lib_python2_7_dist-packages_django_contrib_auth_hashers.html'
p1920
sg10
S'/usr/local/lib/python2.7/dist-packages/django/contrib/auth/hashers'
p1921
sg12
g13
(g14
g15
NtRp1922
(dp1923
g18
I1
sg19
I0
sg20
I244
sg21
I0
sg22
I0
sg23
I157
sg24
I0
sbssg25
S'\xe4\xe5\xc9`#\x81_\x19\xe3\x9e\x89\xb5\xa9\xb7\x00\x0c'
p1924
ssS'_usr_local_lib_python2_7_dist-packages_django_db_migrations_state'
p1925
(dp1926
g6
(dp1927
g8
S'_usr_local_lib_python2_7_dist-packages_django_db_migrations_state.html'
p1928
sg10
S'/usr/local/lib/python2.7/dist-packages/django/db/migrations/state'
p1929
sg12
g13
(g14
g15
NtRp1930
(dp1931
g18
I1
sg19
I0
sg20
I303
sg21
I0
sg22
I0
sg23
I130
sg24
I0
sbssg25
S'H\x98b\x9e\xa8\x84\xe0s\xff99\x86\x8bA\xd4\xdd'
p1932
ssS'_usr_local_lib_python2_7_dist-packages_django_core_management___init__'
p1933
(dp1934
g6
(dp1935
g8
S'_usr_local_lib_python2_7_dist-packages_django_core_management___init__.html'
p1936
sg10
S'/usr/local/lib/python2.7/dist-packages/django/core/management/__init__'
p1937
sg12
g13
(g14
g15
NtRp1938
(dp1939
g18
I1
sg19
I0
sg20
I160
sg21
I0
sg22
I0
sg23
I78
sg24
I0
sbssg25
S'\xd1{\xe1\xc0\xa4pE\xcb\xa1\xb2\x13t\xfa\xbeH\xc4'
p1940
ssS'_usr_local_lib_python2_7_dist-packages_django_contrib_sessions_exceptions'
p1941
(dp1942
g6
(dp1943
g8
S'_usr_local_lib_python2_7_dist-packages_django_contrib_sessions_exceptions.html'
p1944
sg10
S'/usr/local/lib/python2.7/dist-packages/django/contrib/sessions/exceptions'
p1945
sg12
g13
(g14
g15
NtRp1946
(dp1947
g18
I1
sg19
I0
sg20
I5
sg21
I0
sg22
I0
sg23
I0
sg24
I0
sbssg25
S'\xb5o\x11z\x9e\x87\xc6\tc\xa3\xf8C\x84\xa9"Y'
p1948
ssS'_usr_local_lib_python2_7_dist-packages_django_views_decorators___init__'
p1949
(dp1950
g6
(dp1951
g8
S'_usr_local_lib_python2_7_dist-packages_django_views_decorators___init__.html'
p1952
sg10
S'/usr/local/lib/python2.7/dist-packages/django/views/decorators/__init__'
p1953
sg12
g13
(g14
g15
NtRp1954
(dp1955
g18
I1
sg19
I0
sg20
I0
sg21
I0
sg22
I0
sg23
I0
sg24
I0
sbssg25
S'\xb0\xc8pN\xaf>\xa0\xbaz\x144\xe0A9\xb8?'
p1956
ssS'_usr_local_lib_python2_7_dist-packages_django_db_migrations_loader'
p1957
(dp1958
g6
(dp1959
g8
S'_usr_local_lib_python2_7_dist-packages_django_db_migrations_loader.html'
p1960
sg10
S'/usr/local/lib/python2.7/dist-packages/django/db/migrations/loader'
p1961
sg12
g13
(g14
g15
NtRp1962
(dp1963
g18
I1
sg19
I0
sg20
I191
sg21
I0
sg22
I0
sg23
I78
sg24
I0
sbssg25
S'A\xec3\xe4\x077{\x8dDnR;"\x97\xc8\xf2'
p1964
ssS'_usr_local_lib_python2_7_dist-packages_django_core_cache_backends_db'
p1965
(dp1966
g6
(dp1967
g8
S'_usr_local_lib_python2_7_dist-packages_django_core_cache_backends_db.html'
p1968
sg10
S'/usr/local/lib/python2.7/dist-packages/django/core/cache/backends/db'
p1969
sg12
g13
(g14
g15
NtRp1970
(dp1971
g18
I1
sg19
I0
sg20
I133
sg21
I0
sg22
I0
sg23
I110
sg24
I0
sbssg25
S'\xa4\x1dm\x9c\xa7\xcbv\xed\xdaj\x10\xae\x01\xfd\x02\x91'
p1972
ssS'_usr_local_lib_python2_7_dist-packages_django_core_signals'
p1973
(dp1974
g6
(dp1975
g8
S'_usr_local_lib_python2_7_dist-packages_django_core_signals.html'
p1976
sg10
S'/usr/local/lib/python2.7/dist-packages/django/core/signals'
p1977
sg12
g13
(g14
g15
NtRp1978
(dp1979
g18
I1
sg19
I0
sg20
I5
sg21
I0
sg22
I0
sg23
I0
sg24
I0
sbssg25
S'-\xb9\x0flq[h\xa6&=n\xf9]=\xa1j'
p1980
ssS'_usr_local_lib_python2_7_dist-packages_packaging_requirements'
p1981
(dp1982
g6
(dp1983
g8
S'_usr_local_lib_python2_7_dist-packages_packaging_requirements.html'
p1984
sg10
S'/usr/local/lib/python2.7/dist-packages/packaging/requirements'
p1985
sg12
g13
(g14
g15
NtRp1986
(dp1987
g18
I1
sg19
I0
sg20
I72
sg21
I0
sg22
I0
sg23
I25
sg24
I0
sbssg25
S'9\xce\xe7j\xfd\xd1\xbf\xb4\xba\x82\x08(\xad\xe5x\x08'
p1988
ssS'_usr_local_lib_python2_7_dist-packages_django_views___init__'
p1989
(dp1990
g6
(dp1991
g8
S'_usr_local_lib_python2_7_dist-packages_django_views___init__.html'
p1992
sg10
S'/usr/local/lib/python2.7/dist-packages/django/views/__init__'
p1993
sg12
g13
(g14
g15
NtRp1994
(dp1995
g18
I1
sg19
I0
sg20
I0
sg21
I0
sg22
I0
sg23
I0
sg24
I0
sbssg25
S'\xb0\xc8pN\xaf>\xa0\xbaz\x144\xe0A9\xb8?'
p1996
ssS'_usr_local_lib_python2_7_dist-packages_django_contrib_messages_apps'
p1997
(dp1998
g6
(dp1999
g8
S'_usr_local_lib_python2_7_dist-packages_django_contrib_messages_apps.html'
p2000
sg10
S'/usr/local/lib/python2.7/dist-packages/django/contrib/messages/apps'
p2001
sg12
g13
(g14
g15
NtRp2002
(dp2003
g18
I1
sg19
I0
sg20
I5
sg21
I0
sg22
I0
sg23
I0
sg24
I0
sbssg25
S'\xad?\x90\xbe\x8b\xb8\xb8B}\xf80$\xef\x17\x16,'
p2004
ssS'_usr_local_lib_python2_7_dist-packages_django_utils_datastructures'
p2005
(dp2006
g6
(dp2007
g70
S'_usr_local_lib_python2_7_dist-packages_django_utils_datastructures.html'
p2008
sg72
S'/usr/local/lib/python2.7/dist-packages/django/utils/datastructures'
p2009
sg74
g13
(g14
g15
NtRp2010
(dp2011
g18
I1
sg19
I0
sg20
I319
sg21
I0
sg22
I0
sg23
I169
sg24
I0
sbssg25
S'\x94\x94\xc4\x0b\x1f\xa8\xb7\x0b-\xfa\xda\x81\xe8\xdd\x0f\xc8'
p2012
ssS'_usr_local_lib_python2_7_dist-packages_django_contrib_sessions_backends_base'
p2013
(dp2014
g6
(dp2015
g8
S'_usr_local_lib_python2_7_dist-packages_django_contrib_sessions_backends_base.html'
p2016
sg10
S'/usr/local/lib/python2.7/dist-packages/django/contrib/sessions/backends/base'
p2017
sg12
g13
(g14
g15
NtRp2018
(dp2019
g18
I1
sg19
I0
sg20
I184
sg21
I0
sg22
I0
sg23
I106
sg24
I0
sbssg25
S"\x9e\x1d/\x85\x9f\xe4\xf9\xb7t'\x00|/\x0e\xd3\xac"
p2020
ssS'_usr_local_lib_python2_7_dist-packages_django_core_checks_compatibility___init__'
p2021
(dp2022
g6
(dp2023
g8
S'_usr_local_lib_python2_7_dist-packages_django_core_checks_compatibility___init__.html'
p2024
sg10
S'/usr/local/lib/python2.7/dist-packages/django/core/checks/compatibility/__init__'
p2025
sg12
g13
(g14
g15
NtRp2026
(dp2027
g18
I1
sg19
I0
sg20
I0
sg21
I0
sg22
I0
sg23
I0
sg24
I0
sbssg25
S'\xb0\xc8pN\xaf>\xa0\xbaz\x144\xe0A9\xb8?'
p2028
ssS'_usr_local_lib_python2_7_dist-packages_django_core_serializers_pyyaml'
p2029
(dp2030
g6
(dp2031
g8
S'_usr_local_lib_python2_7_dist-packages_django_core_serializers_pyyaml.html'
p2032
sg10
S'/usr/local/lib/python2.7/dist-packages/django/core/serializers/pyyaml'
p2033
sg12
g13
(g14
g15
NtRp2034
(dp2035
g18
I1
sg19
I0
sg20
I40
sg21
I0
sg22
I0
sg23
I36
sg24
I0
sbssg25
S'\xc5\xc9\xb8q\xab\xbd\x9ek\xd1\xbc\xc2\x90\x081<\xc8'
p2036
ssS'_usr_local_lib_python2_7_dist-packages_django_db_migrations_optimizer'
p2037
(dp2038
g6
(dp2039
g8
S'_usr_local_lib_python2_7_dist-packages_django_db_migrations_optimizer.html'
p2040
sg10
S'/usr/local/lib/python2.7/dist-packages/django/db/migrations/optimizer'
p2041
sg12
g13
(g14
g15
NtRp2042
(dp2043
g18
I1
sg19
I0
sg20
I99
sg21
I0
sg22
I0
sg23
I75
sg24
I0
sbssg25
S'\xc0\xc35U\x81\x02\xcfW\x8f\xd4\xeab\xca\xf0\xc3c'
p2044
ssS'Election_migrations___init__'
p2045
(dp2046
g6
(dp2047
g8
S'Election_migrations___init__.html'
p2048
sg10
S'Election/migrations/__init__'
p2049
sg12
g13
(g14
g15
NtRp2050
(dp2051
g18
I1
sg19
I0
sg20
I0
sg21
I0
sg22
I0
sg23
I0
sg24
I0
sbssg25
S'\xb0\xc8pN\xaf>\xa0\xbaz\x144\xe0A9\xb8?'
p2052
ssS'_usr_local_lib_python2_7_dist-packages_django_db_backends_mysql_schema'
p2053
(dp2054
g6
(dp2055
g8
S'_usr_local_lib_python2_7_dist-packages_django_db_backends_mysql_schema.html'
p2056
sg10
S'/usr/local/lib/python2.7/dist-packages/django/db/backends/mysql/schema'
p2057
sg12
g13
(g14
g15
NtRp2058
(dp2059
g18
I1
sg19
I0
sg20
I33
sg21
I0
sg22
I0
sg23
I4
sg24
I0
sbssg25
S'\x97\xd68 {\xd0\xb7wu\xce\xc7{\tv\xe37'
p2060
ssS'_usr_local_lib_python2_7_dist-packages_django_contrib_sessions___init__'
p2061
(dp2062
g6
(dp2063
g8
S'_usr_local_lib_python2_7_dist-packages_django_contrib_sessions___init__.html'
p2064
sg10
S'/usr/local/lib/python2.7/dist-packages/django/contrib/sessions/__init__'
p2065
sg12
g13
(g14
g15
NtRp2066
(dp2067
g18
I1
sg19
I0
sg20
I1
sg21
I0
sg22
I0
sg23
I0
sg24
I0
sbssg25
S'\x99j\xbb\x1d\xaf\xb9%M\xb7w\x0c\xdc\xd5\xec\xfe\xcc'
p2068
ssS'_usr_local_lib_python2_7_dist-packages_django_http_response'
p2069
(dp2070
g6
(dp2071
g70
S'_usr_local_lib_python2_7_dist-packages_django_http_response.html'
p2072
sg72
S'/usr/local/lib/python2.7/dist-packages/django/http/response'
p2073
sg74
g13
(g14
g15
NtRp2074
(dp2075
g18
I1
sg19
I0
sg20
I259
sg21
I0
sg22
I0
sg23
I110
sg24
I0
sbssg25
S'\x9bVQ*4\x98n\x8b\x9f\xb721\x97\xb5\x00*'
p2076
ssS'_usr_local_lib_python2_7_dist-packages_django_db_models___init__'
p2077
(dp2078
g6
(dp2079
g8
S'_usr_local_lib_python2_7_dist-packages_django_db_models___init__.html'
p2080
sg10
S'/usr/local/lib/python2.7/dist-packages/django/db/models/__init__'
p2081
sg12
g13
(g14
g15
NtRp2082
(dp2083
g18
I1
sg19
I0
sg20
I35
sg21
I0
sg22
I0
sg23
I8
sg24
I0
sbssg25
S'x\xc7\x8f\xf1\xd0\xd5\x88x\xefB\x0e"\x17xf\r'
p2084
ssS'_usr_local_lib_python2_7_dist-packages_django_contrib_auth_management___init__'
p2085
(dp2086
g6
(dp2087
g8
S'_usr_local_lib_python2_7_dist-packages_django_contrib_auth_management___init__.html'
p2088
sg10
S'/usr/local/lib/python2.7/dist-packages/django/contrib/auth/management/__init__'
p2089
sg12
g13
(g14
g15
NtRp2090
(dp2091
g18
I1
sg19
I0
sg20
I88
sg21
I0
sg22
I0
sg23
I41
sg24
I0
sbssg25
S'n\xb1|G\xcc%$\x19w\x98b\x16(U\x95\x96'
p2092
ssS'_usr_local_lib_python2_7_dist-packages_django_db___init__'
p2093
(dp2094
g6
(dp2095
g8
S'_usr_local_lib_python2_7_dist-packages_django_db___init__.html'
p2096
sg10
S'/usr/local/lib/python2.7/dist-packages/django/db/__init__'
p2097
sg12
g13
(g14
g15
NtRp2098
(dp2099
g18
I1
sg19
I0
sg20
I26
sg21
I0
sg22
I0
sg23
I6
sg24
I0
sbssg25
S'\x070\x8d,\xd8\xab\xf5C\x01o\xb8iAT\xbd\x0c'
p2100
ssS'_usr_local_lib_python2_7_dist-packages_django_contrib_admin_apps'
p2101
(dp2102
g6
(dp2103
g8
S'_usr_local_lib_python2_7_dist-packages_django_contrib_admin_apps.html'
p2104
sg10
S'/usr/local/lib/python2.7/dist-packages/django/contrib/admin/apps'
p2105
sg12
g13
(g14
g15
NtRp2106
(dp2107
g18
I1
sg19
I0
sg20
I13
sg21
I0
sg22
I0
sg23
I0
sg24
I0
sbssg25
S'\x1b\xd2\xb4\x8d\xe4\xa2jUAU\xd8\xd5\xf5B\x86\xe7'
p2108
ssS'_usr_local_lib_python2_7_dist-packages_django_contrib_messages_middleware'
p2109
(dp2110
g6
(dp2111
g8
S'_usr_local_lib_python2_7_dist-packages_django_contrib_messages_middleware.html'
p2112
sg10
S'/usr/local/lib/python2.7/dist-packages/django/contrib/messages/middleware'
p2113
sg12
g13
(g14
g15
NtRp2114
(dp2115
g18
I1
sg19
I0
sg20
I11
sg21
I0
sg22
I0
sg23
I1
sg24
I0
sbssg25
S'Ck\x91\x91\x8c\xffq\xa6?\x04\x83\xb5Q\x8eJ\xca'
p2116
ssS'_usr_local_lib_python2_7_dist-packages_django_contrib_auth_admin'
p2117
(dp2118
g6
(dp2119
g8
S'_usr_local_lib_python2_7_dist-packages_django_contrib_auth_admin.html'
p2120
sg10
S'/usr/local/lib/python2.7/dist-packages/django/contrib/auth/admin'
p2121
sg12
g13
(g14
g15
NtRp2122
(dp2123
g18
I1
sg19
I0
sg20
I102
sg21
I0
sg22
I0
sg23
I50
sg24
I0
sbssg25
S'\xa2\xceF\x03\xd4\xear$\xee\xa6\xc2{\xa1\xbe\xbc$'
p2124
ssS'_usr_local_lib_python2_7_dist-packages_django_contrib_admin_widgets'
p2125
(dp2126
g6
(dp2127
g8
S'_usr_local_lib_python2_7_dist-packages_django_contrib_admin_widgets.html'
p2128
sg10
S'/usr/local/lib/python2.7/dist-packages/django/contrib/admin/widgets'
p2129
sg12
g13
(g14
g15
NtRp2130
(dp2131
g18
I1
sg19
I0
sg20
I238
sg21
I0
sg22
I0
sg23
I164
sg24
I0
sbssg25
S"\x87F\xebC\xbc\xb9']\xb04\x82\xd9\x08\x977\x0f"
p2132
ssS'_usr_local_lib_python2_7_dist-packages_django_db_backends_signals'
p2133
(dp2134
g6
(dp2135
g8
S'_usr_local_lib_python2_7_dist-packages_django_db_backends_signals.html'
p2136
sg10
S'/usr/local/lib/python2.7/dist-packages/django/db/backends/signals'
p2137
sg12
g13
(g14
g15
NtRp2138
(dp2139
g18
I1
sg19
I0
sg20
I2
sg21
I0
sg22
I0
sg23
I0
sg24
I0
sbssg25
S'\xac\xe8\xc0\xe9\x8a\xd9d\xcc\x03\xc1\x89\xd4\xde\xa8x<'
p2140
ssS'_usr_local_lib_python2_7_dist-packages_django_db_backends_base_validation'
p2141
(dp2142
g6
(dp2143
g8
S'_usr_local_lib_python2_7_dist-packages_django_db_backends_base_validation.html'
p2144
sg10
S'/usr/local/lib/python2.7/dist-packages/django/db/backends/base/validation'
p2145
sg12
g13
(g14
g15
NtRp2146
(dp2147
g18
I1
sg19
I0
sg20
I14
sg21
I0
sg22
I0
sg23
I8
sg24
I0
sbssg25
S'\t\xe8YH}\xf4\x1b*\xb0$\x9dJ\xcb\xe84\x99'
p2148
ssS'_usr_local_lib_python2_7_dist-packages_django_core_files_uploadedfile'
p2149
(dp2150
g6
(dp2151
g8
S'_usr_local_lib_python2_7_dist-packages_django_core_files_uploadedfile.html'
p2152
sg10
S'/usr/local/lib/python2.7/dist-packages/django/core/files/uploadedfile'
p2153
sg12
g13
(g14
g15
NtRp2154
(dp2155
g18
I1
sg19
I0
sg20
I60
sg21
I0
sg22
I0
sg23
I33
sg24
I0
sbssg25
S'\xb9M\x13B8\xba|\xb6B/\xd1\r\xe5y\x1b\xfe'
p2156
ssS'_usr_local_lib_python2_7_dist-packages_django_utils_itercompat'
p2157
(dp2158
g6
(dp2159
g8
S'_usr_local_lib_python2_7_dist-packages_django_utils_itercompat.html'
p2160
sg10
S'/usr/local/lib/python2.7/dist-packages/django/utils/itercompat'
p2161
sg12
g13
(g14
g15
NtRp2162
(dp2163
g18
I1
sg19
I0
sg20
I6
sg21
I0
sg22
I0
sg23
I5
sg24
I0
sbssg25
S'\xf2\x86\x14\xb9\xe2}\xd6\xa3\x9ar\xdb\x04\xdb\xcf\x11\xcb'
p2164
ssS'_usr_local_lib_python2_7_dist-packages_MySQLdb___init__'
p2165
(dp2166
g6
(dp2167
g8
S'_usr_local_lib_python2_7_dist-packages_MySQLdb___init__.html'
p2168
sg10
S'/usr/local/lib/python2.7/dist-packages/MySQLdb/__init__'
p2169
sg12
g13
(g14
g15
NtRp2170
(dp2171
g18
I1
sg19
I0
sg20
I43
sg21
I0
sg22
I0
sg23
I11
sg24
I0
sbssg25
S'\xb9m\xe4\xd9W!\x86\x80\x02\x89E\x91R\x04\x11b'
p2172
ssS'_usr_local_lib_python2_7_dist-packages_django_db_models_lookups'
p2173
(dp2174
g6
(dp2175
g8
S'_usr_local_lib_python2_7_dist-packages_django_db_models_lookups.html'
p2176
sg10
S'/usr/local/lib/python2.7/dist-packages/django/db/models/lookups'
p2177
sg12
g13
(g14
g15
NtRp2178
(dp2179
g18
I1
sg19
I0
sg20
I333
sg21
I0
sg22
I0
sg23
I142
sg24
I0
sbssg25
S'\x19_\xd3\x9fK\x87\x15\xe5X\xd8\xb1>\x8c\xb4W\x19'
p2180
ssS'_usr_local_lib_python2_7_dist-packages_django_contrib_auth_checks'
p2181
(dp2182
g6
(dp2183
g8
S'_usr_local_lib_python2_7_dist-packages_django_contrib_auth_checks.html'
p2184
sg10
S'/usr/local/lib/python2.7/dist-packages/django/contrib/auth/checks'
p2185
sg12
g13
(g14
g15
NtRp2186
(dp2187
g18
I1
sg19
I0
sg20
I16
sg21
I0
sg22
I0
sg23
I11
sg24
I0
sbssg25
S'\xea\xe8\xef\xb9\xe1x#\xfft~\\\x17\xcf\xc7\x80U'
p2188
ssS'_usr_local_lib_python2_7_dist-packages_packaging_version'
p2189
(dp2190
g6
(dp2191
g8
S'_usr_local_lib_python2_7_dist-packages_packaging_version.html'
p2192
sg10
S'/usr/local/lib/python2.7/dist-packages/packaging/version'
p2193
sg12
g13
(g14
g15
NtRp2194
(dp2195
g18
I1
sg19
I0
sg20
I150
sg21
I0
sg22
I0
sg23
I40
sg24
I0
sbssg25
S'HS\xb2\x16\xa0\x19[\rLx:\xf5\xf3\xc9\xc4\xf0'
p2196
ssS'_usr_local_lib_python2_7_dist-packages_django_core_management_commands_flush'
p2197
(dp2198
g6
(dp2199
g8
S'_usr_local_lib_python2_7_dist-packages_django_core_management_commands_flush.html'
p2200
sg10
S'/usr/local/lib/python2.7/dist-packages/django/core/management/commands/flush'
p2201
sg12
g13
(g14
g15
NtRp2202
(dp2203
g18
I1
sg19
I0
sg20
I59
sg21
I0
sg22
I0
sg23
I11
sg24
I0
sbssg25
S'\xc1P\x9c\xa2\xab\x96\xe8Tm\x96\x86\xcfo\xef\xd8\xcf'
p2204
ssS'_usr_local_lib_python2_7_dist-packages_django_db_backends___init__'
p2205
(dp2206
g6
(dp2207
g8
S'_usr_local_lib_python2_7_dist-packages_django_db_backends___init__.html'
p2208
sg10
S'/usr/local/lib/python2.7/dist-packages/django/db/backends/__init__'
p2209
sg12
g13
(g14
g15
NtRp2210
(dp2211
g18
I1
sg19
I0
sg20
I0
sg21
I0
sg22
I0
sg23
I0
sg24
I0
sbssg25
S'\xb0\xc8pN\xaf>\xa0\xbaz\x144\xe0A9\xb8?'
p2212
ssS'_usr_local_lib_python2_7_dist-packages_django_middleware_cache'
p2213
(dp2214
g6
(dp2215
g8
S'_usr_local_lib_python2_7_dist-packages_django_middleware_cache.html'
p2216
sg10
S'/usr/local/lib/python2.7/dist-packages/django/middleware/cache'
p2217
sg12
g13
(g14
g15
NtRp2218
(dp2219
g18
I1
sg19
I0
sg20
I72
sg21
I0
sg22
I0
sg23
I60
sg24
I0
sbssg25
S'qp\x13c\xa8\x04e~\xf8]\x05\xf7\x04\xe9"\x83'
p2220
ssS'_usr_local_lib_python2_7_dist-packages_django_contrib_messages_constants'
p2221
(dp2222
g6
(dp2223
g8
S'_usr_local_lib_python2_7_dist-packages_django_contrib_messages_constants.html'
p2224
sg10
S'/usr/local/lib/python2.7/dist-packages/django/contrib/messages/constants'
p2225
sg12
g13
(g14
g15
NtRp2226
(dp2227
g18
I1
sg19
I0
sg20
I7
sg21
I0
sg22
I0
sg23
I0
sg24
I0
sbssg25
S'_ \x8bb\xed|\xfe\xd5\xbe\x06\xbb\xa4\xfd\xc5X\xb9'
p2228
ssS'_usr_local_lib_python2_7_dist-packages_django_utils_formats'
p2229
(dp2230
g6
(dp2231
g8
S'_usr_local_lib_python2_7_dist-packages_django_utils_formats.html'
p2232
sg10
S'/usr/local/lib/python2.7/dist-packages/django/utils/formats'
p2233
sg12
g13
(g14
g15
NtRp2234
(dp2235
g18
I1
sg19
I0
sg20
I125
sg21
I0
sg22
I0
sg23
I100
sg24
I0
sbssg25
S'\xa6)j\xc4\xa4r\xa1\x05\xab\x08\x85=\xe4\xf4Qz'
p2236
ssS'_usr_local_lib_python2_7_dist-packages_MySQLdb_constants___init__'
p2237
(dp2238
g6
(dp2239
g8
S'_usr_local_lib_python2_7_dist-packages_MySQLdb_constants___init__.html'
p2240
sg10
S'/usr/local/lib/python2.7/dist-packages/MySQLdb/constants/__init__'
p2241
sg12
g13
(g14
g15
NtRp2242
(dp2243
g18
I1
sg19
I0
sg20
I1
sg21
I0
sg22
I0
sg23
I0
sg24
I0
sbssg25
S'<\xfb\x10<\xc8\x14\x8a<\x17V\x135\xfc\x08\xe3\xf2'
p2244
ssS'_usr_local_lib_python2_7_dist-packages_django_middleware_common'
p2245
(dp2246
g6
(dp2247
g8
S'_usr_local_lib_python2_7_dist-packages_django_middleware_common.html'
p2248
sg10
S'/usr/local/lib/python2.7/dist-packages/django/middleware/common'
p2249
sg12
g13
(g14
g15
NtRp2250
(dp2251
g18
I1
sg19
I0
sg20
I74
sg21
I0
sg22
I0
sg23
I43
sg24
I0
sbssg25
S'V\x95c\xa1\xb7\x024l\xfd\x8d;?+\xaa\x93G'
p2252
ssS'_usr_local_lib_python2_7_dist-packages_pkg_resources___init__'
p2253
(dp2254
g6
(dp2255
g8
S'_usr_local_lib_python2_7_dist-packages_pkg_resources___init__.html'
p2256
sg10
S'/usr/local/lib/python2.7/dist-packages/pkg_resources/__init__'
p2257
sg12
g13
(g14
g15
NtRp2258
(dp2259
g18
I1
sg19
I0
sg20
I1508
sg21
I0
sg22
I0
sg23
I901
sg24
I0
sbssg25
S'\xf0\xc4\x13\xb2pn\tj1\xcd\xfb\x9f\xb7\xc8\xe1u'
p2260
ssS'_usr_local_lib_python2_7_dist-packages_django_core_files_storage'
p2261
(dp2262
g6
(dp2263
g8
S'_usr_local_lib_python2_7_dist-packages_django_core_files_storage.html'
p2264
sg10
S'/usr/local/lib/python2.7/dist-packages/django/core/files/storage'
p2265
sg12
g13
(g14
g15
NtRp2266
(dp2267
g18
I1
sg19
I0
sg20
I166
sg21
I0
sg22
I0
sg23
I115
sg24
I0
sbssg25
S'h\x12D,1\xe9Ar\xfb\xbf\x0f\xdd\x84\xf4\xd4x'
p2268
ssS'_usr_local_lib_python2_7_dist-packages_django_utils_ipv6'
p2269
(dp2270
g6
(dp2271
g8
S'_usr_local_lib_python2_7_dist-packages_django_utils_ipv6.html'
p2272
sg10
S'/usr/local/lib/python2.7/dist-packages/django/utils/ipv6'
p2273
sg12
g13
(g14
g15
NtRp2274
(dp2275
g18
I1
sg19
I0
sg20
I108
sg21
I0
sg22
I0
sg23
I99
sg24
I0
sbssg25
S'\x8b>\xae\xac\xf1N\xecI\xbe\x00J\xea\xdf\xb1MZ'
p2276
ssS'_usr_local_lib_python2_7_dist-packages_django_db_models_sql_compiler'
p2277
(dp2278
g6
(dp2279
g8
S'_usr_local_lib_python2_7_dist-packages_django_db_models_sql_compiler.html'
p2280
sg10
S'/usr/local/lib/python2.7/dist-packages/django/db/models/sql/compiler'
p2281
sg12
g13
(g14
g15
NtRp2282
(dp2283
g18
I1
sg19
I0
sg20
I643
sg21
I0
sg22
I0
sg23
I347
sg24
I0
sbssg25
S'\x8cN\x94\xb7\xd3\xb1\x0f\x82t=U#\x90\xc0\x1a\xfe'
p2284
ssS'_usr_local_lib_python2_7_dist-packages_django_template_engine'
p2285
(dp2286
g6
(dp2287
g70
S'_usr_local_lib_python2_7_dist-packages_django_template_engine.html'
p2288
sg72
S'/usr/local/lib/python2.7/dist-packages/django/template/engine'
p2289
sg74
g13
(g14
g15
NtRp2290
(dp2291
g18
I1
sg19
I0
sg20
I144
sg21
I0
sg22
I0
sg23
I49
sg24
I0
sbssg25
S'\x7f\x92CA\xed\xde\xcc\x15\xcf\x94\x10\x0c\x88<\xaf{'
p2292
ssS'_usr_local_lib_python2_7_dist-packages_django_db_models_sql_subqueries'
p2293
(dp2294
g6
(dp2295
g8
S'_usr_local_lib_python2_7_dist-packages_django_db_models_sql_subqueries.html'
p2296
sg10
S'/usr/local/lib/python2.7/dist-packages/django/db/models/sql/subqueries'
p2297
sg12
g13
(g14
g15
NtRp2298
(dp2299
g18
I1
sg19
I0
sg20
I104
sg21
I0
sg22
I0
sg23
I68
sg24
I0
sbssg25
S'\x1ei\xa30\x13\x96\x82e\xc1\xa9\xc4z\xe8+\x1c\xdb'
p2300
ssS'_usr_local_lib_python2_7_dist-packages_django_utils_encoding'
p2301
(dp2302
g6
(dp2303
g8
S'_usr_local_lib_python2_7_dist-packages_django_utils_encoding.html'
p2304
sg10
S'/usr/local/lib/python2.7/dist-packages/django/utils/encoding'
p2305
sg12
g13
(g14
g15
NtRp2306
(dp2307
g18
I1
sg19
I0
sg20
I116
sg21
I0
sg22
I0
sg23
I43
sg24
I0
sbssg25
S'r\xac\x11\xb9\x91M\xc4\xd7\xdfp\rJY\xc3\x80\xc0'
p2308
ssS'_usr_local_lib_python2_7_dist-packages_django_core_mail_utils'
p2309
(dp2310
g6
(dp2311
g8
S'_usr_local_lib_python2_7_dist-packages_django_core_mail_utils.html'
p2312
sg10
S'/usr/local/lib/python2.7/dist-packages/django/core/mail/utils'
p2313
sg12
g13
(g14
g15
NtRp2314
(dp2315
g18
I1
sg19
I0
sg20
I9
sg21
I0
sg22
I0
sg23
I4
sg24
I0
sbssg25
S'q\x8f\x86\xa8\x10\xa1\x04\x98^\x0e\xe8\x93\xb7X\xaan'
p2316
ssS'_usr_local_lib_python2_7_dist-packages_django_core_serializers_base'
p2317
(dp2318
g6
(dp2319
g8
S'_usr_local_lib_python2_7_dist-packages_django_core_serializers_base.html'
p2320
sg10
S'/usr/local/lib/python2.7/dist-packages/django/core/serializers/base'
p2321
sg12
g13
(g14
g15
NtRp2322
(dp2323
g18
I1
sg19
I0
sg20
I90
sg21
I0
sg22
I0
sg23
I33
sg24
I0
sbssg25
S"'\xba\n\xf9\x0c\xe7?\xaaD\xff\xb7M\xc2\xbf\x19\xb4"
p2324
ssS'_usr_local_lib_python2_7_dist-packages_django_contrib_messages___init__'
p2325
(dp2326
g6
(dp2327
g8
S'_usr_local_lib_python2_7_dist-packages_django_contrib_messages___init__.html'
p2328
sg10
S'/usr/local/lib/python2.7/dist-packages/django/contrib/messages/__init__'
p2329
sg12
g13
(g14
g15
NtRp2330
(dp2331
g18
I1
sg19
I0
sg20
I3
sg21
I0
sg22
I0
sg23
I0
sg24
I0
sbssg25
S'=\xbb\xec\x1b\xf4\xe6$\xf7Z\x0b\xa8\xdf\x11\x1c\xd3\xfa'
p2332
ssS'_usr_local_lib_python2_7_dist-packages_django_test_utils'
p2333
(dp2334
g6
(dp2335
g8
S'_usr_local_lib_python2_7_dist-packages_django_test_utils.html'
p2336
sg10
S'/usr/local/lib/python2.7/dist-packages/django/test/utils'
p2337
sg12
g13
(g14
g15
NtRp2338
(dp2339
g18
I1
sg19
I0
sg20
I334
sg21
I0
sg22
I0
sg23
I227
sg24
I0
sbssg25
S'Z\xe8\xceg\xee<S\xaefZ\x93;\x07\xdd\xe0M'
p2340
ssS'_usr_local_lib_python2_7_dist-packages_django_contrib_auth_migrations_0006_require_contenttypes_0002'
p2341
(dp2342
g6
(dp2343
g8
S'_usr_local_lib_python2_7_dist-packages_django_contrib_auth_migrations_0006_require_contenttypes_0002.html'
p2344
sg10
S'/usr/local/lib/python2.7/dist-packages/django/contrib/auth/migrations/0006_require_contenttypes_0002'
p2345
sg12
g13
(g14
g15
NtRp2346
(dp2347
g18
I1
sg19
I0
sg20
I5
sg21
I0
sg22
I0
sg23
I0
sg24
I0
sbssg25
S'\xcd\xb9\xeet\x16?\xc1l\x18\xb7\x14\xe6\x0e\xcd+='
p2348
ssS'_usr_local_lib_python2_7_dist-packages_django_contrib_staticfiles___init__'
p2349
(dp2350
g6
(dp2351
g8
S'_usr_local_lib_python2_7_dist-packages_django_contrib_staticfiles___init__.html'
p2352
sg10
S'/usr/local/lib/python2.7/dist-packages/django/contrib/staticfiles/__init__'
p2353
sg12
g13
(g14
g15
NtRp2354
(dp2355
g18
I1
sg19
I0
sg20
I1
sg21
I0
sg22
I0
sg23
I0
sg24
I0
sbssg25
S'o\xf4\x8a\xb6\x10I\xf4G\xa2_\xba$\xf9\xd2\xb1{'
p2356
ssS'_usr_local_lib_python2_7_dist-packages_django_contrib_admin_exceptions'
p2357
(dp2358
g6
(dp2359
g8
S'_usr_local_lib_python2_7_dist-packages_django_contrib_admin_exceptions.html'
p2360
sg10
S'/usr/local/lib/python2.7/dist-packages/django/contrib/admin/exceptions'
p2361
sg12
g13
(g14
g15
NtRp2362
(dp2363
g18
I1
sg19
I0
sg20
I5
sg21
I0
sg22
I0
sg23
I0
sg24
I0
sbssg25
S'J`\x85\xe1= \x00c\x95\xd7\x98\x0b\x0f\xf7\xf4\x7f'
p2364
ssS'_usr_local_lib_python2_7_dist-packages_django_contrib_admin_validation'
p2365
(dp2366
g6
(dp2367
g8
S'_usr_local_lib_python2_7_dist-packages_django_contrib_admin_validation.html'
p2368
sg10
S'/usr/local/lib/python2.7/dist-packages/django/contrib/admin/validation'
p2369
sg12
g13
(g14
g15
NtRp2370
(dp2371
g18
I1
sg19
I0
sg20
I258
sg21
I0
sg22
I0
sg23
I214
sg24
I0
sbssg25
S'\xc0k\xeaf\xb40\xcf\x10>\xf5:\xee\x8b\xd9\x1eq'
p2372
ssS'_usr_local_lib_python2_7_dist-packages_django_contrib_admin_actions'
p2373
(dp2374
g6
(dp2375
g8
S'_usr_local_lib_python2_7_dist-packages_django_contrib_admin_actions.html'
p2376
sg10
S'/usr/local/lib/python2.7/dist-packages/django/contrib/admin/actions'
p2377
sg12
g13
(g14
g15
NtRp2378
(dp2379
g18
I1
sg19
I0
sg20
I36
sg21
I0
sg22
I0
sg23
I26
sg24
I0
sbssg25
S'\x1b^\xf8\xbb\xe7\xecj\xdb\xeb]\r\xb4\x88\x95\x9a@'
p2380
ssS'_usr_local_lib_python2_7_dist-packages_django_contrib_admin_migrations___init__'
p2381
(dp2382
g6
(dp2383
g8
S'_usr_local_lib_python2_7_dist-packages_django_contrib_admin_migrations___init__.html'
p2384
sg10
S'/usr/local/lib/python2.7/dist-packages/django/contrib/admin/migrations/__init__'
p2385
sg12
g13
(g14
g15
NtRp2386
(dp2387
g18
I1
sg19
I0
sg20
I0
sg21
I0
sg22
I0
sg23
I0
sg24
I0
sbssg25
S'\xb0\xc8pN\xaf>\xa0\xbaz\x144\xe0A9\xb8?'
p2388
ssS'_usr_local_lib_python2_7_dist-packages_django_contrib_messages_context_processors'
p2389
(dp2390
g6
(dp2391
g8
S'_usr_local_lib_python2_7_dist-packages_django_contrib_messages_context_processors.html'
p2392
sg10
S'/usr/local/lib/python2.7/dist-packages/django/contrib/messages/context_processors'
p2393
sg12
g13
(g14
g15
NtRp2394
(dp2395
g18
I1
sg19
I0
sg20
I4
sg21
I0
sg22
I0
sg23
I0
sg24
I0
sbssg25
S'\xc3B[p\xa39cH-c\x18\xa5KTic'
p2396
ssS'_usr_local_lib_python2_7_dist-packages_django_core_mail_backends___init__'
p2397
(dp2398
g6
(dp2399
g8
S'_usr_local_lib_python2_7_dist-packages_django_core_mail_backends___init__.html'
p2400
sg10
S'/usr/local/lib/python2.7/dist-packages/django/core/mail/backends/__init__'
p2401
sg12
g13
(g14
g15
NtRp2402
(dp2403
g18
I1
sg19
I0
sg20
I0
sg21
I0
sg22
I0
sg23
I0
sg24
I0
sbssg25
S'Yd\x89\xd2u\xf7\x1dgvmQ.\xe1\xce/\xd0'
p2404
ssS'Election_models'
p2405
(dp2406
g6
(dp2407
g8
S'Election_models.html'
p2408
sg10
S'Election/models'
p2409
sg12
g13
(g14
g15
NtRp2410
(dp2411
g18
I1
sg19
I0
sg20
I27
sg21
I0
sg22
I0
sg23
I0
sg24
I0
sbssg25
S'\xe8\xa4Z\xe8#\xaf\xe8Y\xaf)u~\x9eWG\xaa'
p2412
ssS'_usr_local_lib_python2_7_dist-packages_django_db_migrations_graph'
p2413
(dp2414
g6
(dp2415
g8
S'_usr_local_lib_python2_7_dist-packages_django_db_migrations_graph.html'
p2416
sg10
S'/usr/local/lib/python2.7/dist-packages/django/db/migrations/graph'
p2417
sg12
g13
(g14
g15
NtRp2418
(dp2419
g18
I1
sg19
I0
sg20
I141
sg21
I0
sg22
I0
sg23
I44
sg24
I0
sbssg25
S'H\xafH\xf6\x8c\xd3\xd9\xfc\xcf\xe0FB\x88i\xde\xe4'
p2420
ssS'_usr_local_lib_python2_7_dist-packages_django_template_context'
p2421
(dp2422
g6
(dp2423
g8
S'_usr_local_lib_python2_7_dist-packages_django_template_context.html'
p2424
sg10
S'/usr/local/lib/python2.7/dist-packages/django/template/context'
p2425
sg12
g13
(g14
g15
NtRp2426
(dp2427
g18
I1
sg19
I0
sg20
I149
sg21
I0
sg22
I0
sg23
I59
sg24
I0
sbssg25
S'!+\x1a\x17\xe8\x11\xb3v(\xc13\x81:\xc9Wr'
p2428
ssS'_usr_local_lib_python2_7_dist-packages_django_core_files_locks'
p2429
(dp2430
g6
(dp2431
g8
S'_usr_local_lib_python2_7_dist-packages_django_core_files_locks.html'
p2432
sg10
S'/usr/local/lib/python2.7/dist-packages/django/core/files/locks'
p2433
sg12
g13
(g14
g15
NtRp2434
(dp2435
g18
I1
sg19
I0
sg20
I57
sg21
I0
sg22
I0
sg23
I46
sg24
I0
sbssg25
S'F\xa8\xff]\xbc\xf7a\xeb\xe5\xcf\xddW\x994\xaeP'
p2436
ssS'_usr_local_lib_python2_7_dist-packages_django_db_migrations_topological_sort'
p2437
(dp2438
g6
(dp2439
g8
S'_usr_local_lib_python2_7_dist-packages_django_db_migrations_topological_sort.html'
p2440
sg10
S'/usr/local/lib/python2.7/dist-packages/django/db/migrations/topological_sort'
p2441
sg12
g13
(g14
g15
NtRp2442
(dp2443
g18
I1
sg19
I0
sg20
I15
sg21
I0
sg22
I0
sg23
I13
sg24
I0
sbssg25
S'0\xb0\xf3\xcd\xb6rqA\x00\x06\xb9\xb6\x06\x04\x10\xb3'
p2444
ssS'_usr_local_lib_python2_7_dist-packages_django_utils_termcolors'
p2445
(dp2446
g6
(dp2447
g8
S'_usr_local_lib_python2_7_dist-packages_django_utils_termcolors.html'
p2448
sg10
S'/usr/local/lib/python2.7/dist-packages/django/utils/termcolors'
p2449
sg12
g13
(g14
g15
NtRp2450
(dp2451
g18
I1
sg19
I0
sg20
I57
sg21
I0
sg22
I0
sg23
I22
sg24
I0
sbssg25
S':\xa2v\x01\xb3_]/N\xd3\x12\xd2\xa3\x82\xbar'
p2452
ssS'_usr_local_lib_python2_7_dist-packages_MySQLdb_release'
p2453
(dp2454
g6
(dp2455
g8
S'_usr_local_lib_python2_7_dist-packages_MySQLdb_release.html'
p2456
sg10
S'/usr/local/lib/python2.7/dist-packages/MySQLdb/release'
p2457
sg12
g13
(g14
g15
NtRp2458
(dp2459
g18
I1
sg19
I0
sg20
I3
sg21
I0
sg22
I0
sg23
I0
sg24
I0
sbssg25
S'C\xf5\x1c\x86\x8a\x88\x8bKtw\x07\xc6\x87U\x1bu'
p2460
ssS'_usr_local_lib_python2_7_dist-packages_pyparsing'
p2461
(dp2462
g6
(dp2463
g8
S'_usr_local_lib_python2_7_dist-packages_pyparsing.html'
p2464
sg10
S'/usr/local/lib/python2.7/dist-packages/pyparsing'
p2465
sg12
g13
(g14
g15
NtRp2466
(dp2467
g18
I1
sg19
I0
sg20
I2527
sg21
I0
sg22
I0
sg23
I1442
sg24
I0
sbssg25
S'\xa0\xd9qg\x8dK\x11\x1a9/\x00gz^=@'
p2468
ssS'_usr_local_lib_python2_7_dist-packages_django_http_multipartparser'
p2469
(dp2470
g6
(dp2471
g8
S'_usr_local_lib_python2_7_dist-packages_django_http_multipartparser.html'
p2472
sg10
S'/usr/local/lib/python2.7/dist-packages/django/http/multipartparser'
p2473
sg12
g13
(g14
g15
NtRp2474
(dp2475
g18
I1
sg19
I0
sg20
I364
sg21
I0
sg22
I0
sg23
I307
sg24
I0
sbssg25
S'D\x13i\xc5\xc0sDuG(\xc7\tL\xe8L\xa4'
p2476
ssS'_usr_local_lib_python2_7_dist-packages_django_core_checks_compatibility_django_1_7_0'
p2477
(dp2478
g6
(dp2479
g8
S'_usr_local_lib_python2_7_dist-packages_django_core_checks_compatibility_django_1_7_0.html'
p2480
sg10
S'/usr/local/lib/python2.7/dist-packages/django/core/checks/compatibility/django_1_7_0'
p2481
sg12
g13
(g14
g15
NtRp2482
(dp2483
g18
I1
sg19
I0
sg20
I11
sg21
I0
sg22
I0
sg23
I7
sg24
I0
sbssg25
S'ij\xa9\xcd\x1a\x90V]\xfc\xc7\r\x1e\xab\x04jJ'
p2484
ssS'_usr_local_lib_python2_7_dist-packages_django_core_mail_message'
p2485
(dp2486
g6
(dp2487
g8
S'_usr_local_lib_python2_7_dist-packages_django_core_mail_message.html'
p2488
sg10
S'/usr/local/lib/python2.7/dist-packages/django/core/mail/message'
p2489
sg12
g13
(g14
g15
NtRp2490
(dp2491
g18
I1
sg19
I0
sg20
I252
sg21
I0
sg22
I0
sg23
I192
sg24
I0
sbssg25
S"\x15\xa5'9i<e\x1e\xa7\xce\xfd\x94z\xa4-("
p2492
ssS'Election_portal_urls'
p2493
(dp2494
g6
(dp2495
g8
S'Election_portal_urls.html'
p2496
sg10
S'Election_portal/urls'
p2497
sg12
g13
(g14
g15
NtRp2498
(dp2499
g18
I1
sg19
I0
sg20
I3
sg21
I0
sg22
I0
sg23
I0
sg24
I0
sbssg25
S'm\xcc\xa4U>f\x84\x8d\xf0\x1b\x9as?\xc48.'
p2500
ssS'_usr_local_lib_python2_7_dist-packages_django_utils_dateparse'
p2501
(dp2502
g6
(dp2503
g8
S'_usr_local_lib_python2_7_dist-packages_django_utils_dateparse.html'
p2504
sg10
S'/usr/local/lib/python2.7/dist-packages/django/utils/dateparse'
p2505
sg12
g13
(g14
g15
NtRp2506
(dp2507
g18
I1
sg19
I0
sg20
I50
sg21
I0
sg22
I0
sg23
I33
sg24
I0
sbssg25
S'\xd0\xe0\xba\xaa\xfe_\x85T\xebE\xcc\xb2(\x05\x89I'
p2508
ssS'_usr_local_lib_python2_7_dist-packages_django_db_models_deletion'
p2509
(dp2510
g6
(dp2511
g8
S'_usr_local_lib_python2_7_dist-packages_django_db_models_deletion.html'
p2512
sg10
S'/usr/local/lib/python2.7/dist-packages/django/db/models/deletion'
p2513
sg12
g13
(g14
g15
NtRp2514
(dp2515
g18
I1
sg19
I0
sg20
I167
sg21
I0
sg22
I0
sg23
I141
sg24
I0
sbssg25
S'8)\xfa\xaf\x14Y\xde\x18\xa6:\xef+\x8a\xd7\xdf\x91'
p2516
ssS'_usr_local_lib_python2_7_dist-packages_django_db_models_fields_related'
p2517
(dp2518
g6
(dp2519
g8
S'_usr_local_lib_python2_7_dist-packages_django_db_models_fields_related.html'
p2520
sg10
S'/usr/local/lib/python2.7/dist-packages/django/db/models/fields/related'
p2521
sg12
g13
(g14
g15
NtRp2522
(dp2523
g18
I1
sg19
I0
sg20
I1295
sg21
I0
sg22
I0
sg23
I795
sg24
I0
sbssg25
S'\xc4I\xb9>\x9b\xa2d,\xcc\xf5\xaf\x16\xd6\xd9*F'
p2524
ssS'_usr_local_lib_python2_7_dist-packages_django_utils_xmlutils'
p2525
(dp2526
g6
(dp2527
g8
S'_usr_local_lib_python2_7_dist-packages_django_utils_xmlutils.html'
p2528
sg10
S'/usr/local/lib/python2.7/dist-packages/django/utils/xmlutils'
p2529
sg12
g13
(g14
g15
NtRp2530
(dp2531
g18
I1
sg19
I0
sg20
I9
sg21
I0
sg22
I0
sg23
I6
sg24
I0
sbssg25
S'Z;\r+O\xda\xbe\xfb\xa0\xed9\x1c)\x1fW\xa6'
p2532
ssS'_usr_local_lib_python2_7_dist-packages_django_utils_log'
p2533
(dp2534
g6
(dp2535
g70
S'_usr_local_lib_python2_7_dist-packages_django_utils_log.html'
p2536
sg72
S'/usr/local/lib/python2.7/dist-packages/django/utils/log'
p2537
sg74
g13
(g14
g15
NtRp2538
(dp2539
g18
I1
sg19
I0
sg20
I67
sg21
I0
sg22
I0
sg23
I28
sg24
I0
sbssg25
S'\xed\xc1B\x01c\x14\xd5kui[\xcf\x1b+k\x9a'
p2540
ssS'_usr_local_lib_python2_7_dist-packages_django_utils_text'
p2541
(dp2542
g6
(dp2543
g8
S'_usr_local_lib_python2_7_dist-packages_django_utils_text.html'
p2544
sg10
S'/usr/local/lib/python2.7/dist-packages/django/utils/text'
p2545
sg12
g13
(g14
g15
NtRp2546
(dp2547
g18
I1
sg19
I0
sg20
I242
sg21
I0
sg22
I0
sg23
I177
sg24
I0
sbssg25
S'\x81cG\xfc\x0b\xe2.t\xe2+k\x9b4\xa9*\xef'
p2548
ssS'_usr_local_lib_python2_7_dist-packages_django_core_checks_security_base'
p2549
(dp2550
g6
(dp2551
g8
S'_usr_local_lib_python2_7_dist-packages_django_core_checks_security_base.html'
p2552
sg10
S'/usr/local/lib/python2.7/dist-packages/django/core/checks/security/base'
p2553
sg12
g13
(g14
g15
NtRp2554
(dp2555
g18
I1
sg19
I0
sg20
I48
sg21
I0
sg22
I0
sg23
I22
sg24
I0
sbssg25
S'\xe8Z\xc0\xd0\x1b-g\x07hM\xe1\xfb\x95\xd9\xe5p'
p2556
ssS'_usr_local_lib_python2_7_dist-packages_django_utils__os'
p2557
(dp2558
g6
(dp2559
g8
S'_usr_local_lib_python2_7_dist-packages_django_utils__os.html'
p2560
sg10
S'/usr/local/lib/python2.7/dist-packages/django/utils/_os'
p2561
sg12
g13
(g14
g15
NtRp2562
(dp2563
g18
I1
sg19
I0
sg20
I60
sg21
I0
sg22
I0
sg23
I24
sg24
I0
sbssg25
S'\x84C\xf7:\xb5\xef\xae\x88\x1aS&\xc0\xb8-\x16\xbb'
p2564
ssS'_usr_local_lib_python2_7_dist-packages_django_db_models_sql___init__'
p2565
(dp2566
g6
(dp2567
g8
S'_usr_local_lib_python2_7_dist-packages_django_db_models_sql___init__.html'
p2568
sg10
S'/usr/local/lib/python2.7/dist-packages/django/db/models/sql/__init__'
p2569
sg12
g13
(g14
g15
NtRp2570
(dp2571
g18
I1
sg19
I0
sg20
I5
sg21
I0
sg22
I0
sg23
I0
sg24
I0
sbssg25
S'\xee\x05~\x14<\xbd\xceO\xa9\xcf\xd3\t\x04\xfbDP'
p2572
ssS'_usr_local_lib_python2_7_dist-packages__mysql_exceptions'
p2573
(dp2574
g6
(dp2575
g8
S'_usr_local_lib_python2_7_dist-packages__mysql_exceptions.html'
p2576
sg10
S'/usr/local/lib/python2.7/dist-packages/_mysql_exceptions'
p2577
sg12
g13
(g14
g15
NtRp2578
(dp2579
g18
I1
sg19
I0
sg20
I15
sg21
I0
sg22
I0
sg23
I2
sg24
I0
sbssg25
S'\xf0\xf5n `gva\x17!~vO\x90$\r'
p2580
ssS'_usr_local_lib_python2_7_dist-packages_django_forms_formsets'
p2581
(dp2582
g6
(dp2583
g8
S'_usr_local_lib_python2_7_dist-packages_django_forms_formsets.html'
p2584
sg10
S'/usr/local/lib/python2.7/dist-packages/django/forms/formsets'
p2585
sg12
g13
(g14
g15
NtRp2586
(dp2587
g18
I1
sg19
I0
sg20
I223
sg21
I0
sg22
I0
sg23
I160
sg24
I0
sbssg25
S'\xd6\r\x86\x9e\xa9\xa1\xe8\xa1\x96\xa8<\xdf\xdb\x9a\x10='
p2588
ssS'_usr_local_lib_python2_7_dist-packages_django_shortcuts'
p2589
(dp2590
g6
(dp2591
g8
S'_usr_local_lib_python2_7_dist-packages_django_shortcuts.html'
p2592
sg10
S'/usr/local/lib/python2.7/dist-packages/django/shortcuts'
p2593
sg12
g13
(g14
g15
NtRp2594
(dp2595
g18
I1
sg19
I0
sg20
I76
sg21
I0
sg22
I0
sg23
I53
sg24
I0
sbssg25
S']\xff\x9a\xcd\x9f8\x9e\xc6V^\xecP\x82\xb9"x'
p2596
ssS'_usr_local_lib_python2_7_dist-packages_django_utils_synch'
p2597
(dp2598
g6
(dp2599
g8
S'_usr_local_lib_python2_7_dist-packages_django_utils_synch.html'
p2600
sg10
S'/usr/local/lib/python2.7/dist-packages/django/utils/synch'
p2601
sg12
g13
(g14
g15
NtRp2602
(dp2603
g18
I1
sg19
I0
sg20
I56
sg21
I0
sg22
I0
sg23
I39
sg24
I0
sbssg25
S'q\x15\xbaJ\x98\x10\xc7\x84;t+\x83\x7fX>\xd6'
p2604
ssS'_usr_local_lib_python2_7_dist-packages_django_test_testcases'
p2605
(dp2606
g6
(dp2607
g8
S'_usr_local_lib_python2_7_dist-packages_django_test_testcases.html'
p2608
sg10
S'/usr/local/lib/python2.7/dist-packages/django/test/testcases'
p2609
sg12
g13
(g14
g15
NtRp2610
(dp2611
g18
I1
sg19
I0
sg20
I636
sg21
I0
sg22
I0
sg23
I434
sg24
I0
sbssg25
S'u\x18\xd5\xc9SI\x08\x08I\xaa\xd7Z\x82b\x8ak'
p2612
ssS'_usr_local_lib_python2_7_dist-packages_django_forms_fields'
p2613
(dp2614
g6
(dp2615
g8
S'_usr_local_lib_python2_7_dist-packages_django_forms_fields.html'
p2616
sg10
S'/usr/local/lib/python2.7/dist-packages/django/forms/fields'
p2617
sg12
g13
(g14
g15
NtRp2618
(dp2619
g18
I1
sg19
I0
sg20
I723
sg21
I0
sg22
I0
sg23
I493
sg24
I0
sbssg25
S'\xc0\xb8\xd60\xe6V\x01\x14\r\x9e\xd7\xb3>d=+'
p2620
ssS'_usr_local_lib_python2_7_dist-packages_django_db_migrations___init__'
p2621
(dp2622
g6
(dp2623
g8
S'_usr_local_lib_python2_7_dist-packages_django_db_migrations___init__.html'
p2624
sg10
S'/usr/local/lib/python2.7/dist-packages/django/db/migrations/__init__'
p2625
sg12
g13
(g14
g15
NtRp2626
(dp2627
g18
I1
sg19
I0
sg20
I2
sg21
I0
sg22
I0
sg23
I0
sg24
I0
sbssg25
S'\xe3A\xfdeM\xdcG\r\xfe\x11\x0cB\xe4\xb8\x00]'
p2628
ssS'_usr_local_lib_python2_7_dist-packages_django_contrib___init__'
p2629
(dp2630
g6
(dp2631
g8
S'_usr_local_lib_python2_7_dist-packages_django_contrib___init__.html'
p2632
sg10
S'/usr/local/lib/python2.7/dist-packages/django/contrib/__init__'
p2633
sg12
g13
(g14
g15
NtRp2634
(dp2635
g18
I1
sg19
I0
sg20
I0
sg21
I0
sg22
I0
sg23
I0
sg24
I0
sbssg25
S'\xb0\xc8pN\xaf>\xa0\xbaz\x144\xe0A9\xb8?'
p2636
ssS'_usr_local_lib_python2_7_dist-packages_django_core_servers___init__'
p2637
(dp2638
g6
(dp2639
g8
S'_usr_local_lib_python2_7_dist-packages_django_core_servers___init__.html'
p2640
sg10
S'/usr/local/lib/python2.7/dist-packages/django/core/servers/__init__'
p2641
sg12
g13
(g14
g15
NtRp2642
(dp2643
g18
I1
sg19
I0
sg20
I0
sg21
I0
sg22
I0
sg23
I0
sg24
I0
sbssg25
S'\xb0\xc8pN\xaf>\xa0\xbaz\x144\xe0A9\xb8?'
p2644
ssS'_usr_local_lib_python2_7_dist-packages_appdirs'
p2645
(dp2646
g6
(dp2647
g8
S'_usr_local_lib_python2_7_dist-packages_appdirs.html'
p2648
sg10
S'/usr/local/lib/python2.7/dist-packages/appdirs'
p2649
sg12
g13
(g14
g15
NtRp2650
(dp2651
g18
I1
sg19
I0
sg20
I250
sg21
I0
sg22
I0
sg23
I219
sg24
I0
sbssg25
S'\x05\r\x1eOF\xc3\x9a\xa8L\x14\xfd\xb7{|G\xdb'
p2652
ssS'_usr_local_lib_python2_7_dist-packages_django_core_cache_backends_locmem'
p2653
(dp2654
g6
(dp2655
g8
S'_usr_local_lib_python2_7_dist-packages_django_core_cache_backends_locmem.html'
p2656
sg10
S'/usr/local/lib/python2.7/dist-packages/django/core/cache/backends/locmem'
p2657
sg12
g13
(g14
g15
NtRp2658
(dp2659
g18
I1
sg19
I0
sg20
I109
sg21
I0
sg22
I0
sg23
I82
sg24
I0
sbssg25
S'\x179\'@!\x05|\xb1\xa8U\xba"\xc1x\x82b'
p2660
ssS'_usr_local_lib_python2_7_dist-packages_django_contrib_auth_migrations_0003_alter_user_email_max_length'
p2661
(dp2662
g6
(dp2663
g8
S'_usr_local_lib_python2_7_dist-packages_django_contrib_auth_migrations_0003_alter_user_email_max_length.html'
p2664
sg10
S'/usr/local/lib/python2.7/dist-packages/django/contrib/auth/migrations/0003_alter_user_email_max_length'
p2665
sg12
g13
(g14
g15
NtRp2666
(dp2667
g18
I1
sg19
I0
sg20
I5
sg21
I0
sg22
I0
sg23
I0
sg24
I0
sbssg25
S'h~i\x05\xaf\xb4\xac\xe9.\xa9Z\xd2b\xc4q\xa2'
p2668
ssS'_usr_local_lib_python2_7_dist-packages_django_db_migrations_writer'
p2669
(dp2670
g6
(dp2671
g8
S'_usr_local_lib_python2_7_dist-packages_django_db_migrations_writer.html'
p2672
sg10
S'/usr/local/lib/python2.7/dist-packages/django/db/migrations/writer'
p2673
sg12
g13
(g14
g15
NtRp2674
(dp2675
g18
I1
sg19
I0
sg20
I291
sg21
I0
sg22
I0
sg23
I247
sg24
I0
sbssg25
S'\xbb\x82\xdd\x9f\x9e\xc4\xd1\x8d\xf6N\x81\x9f U\xdf\xf1'
p2676
ssS'_usr_local_lib_python2_7_dist-packages_django_contrib_messages_storage_fallback'
p2677
(dp2678
g6
(dp2679
g8
S'_usr_local_lib_python2_7_dist-packages_django_contrib_messages_storage_fallback.html'
p2680
sg10
S'/usr/local/lib/python2.7/dist-packages/django/contrib/messages/storage/fallback'
p2681
sg12
g13
(g14
g15
NtRp2682
(dp2683
g18
I1
sg19
I0
sg20
I29
sg21
I0
sg22
I0
sg23
I18
sg24
I0
sbssg25
S'}\xc4*\xaa>b\xd2\xbb\xb7RHVH\x9a\xbe\xde'
p2684
ssS'_usr_local_lib_python2_7_dist-packages_django_contrib_auth_forms'
p2685
(dp2686
g6
(dp2687
g8
S'_usr_local_lib_python2_7_dist-packages_django_contrib_auth_forms.html'
p2688
sg10
S'/usr/local/lib/python2.7/dist-packages/django/contrib/auth/forms'
p2689
sg12
g13
(g14
g15
NtRp2690
(dp2691
g18
I1
sg19
I0
sg20
I178
sg21
I0
sg22
I0
sg23
I100
sg24
I0
sbssg25
S'W\xd1\xa9\xe5\xfcC\xca\x14\x0cT\x05\xac5BP\x91'
p2692
ssS'_usr_local_lib_python2_7_dist-packages_django_template_defaulttags'
p2693
(dp2694
g6
(dp2695
g8
S'_usr_local_lib_python2_7_dist-packages_django_template_defaulttags.html'
p2696
sg10
S'/usr/local/lib/python2.7/dist-packages/django/template/defaulttags'
p2697
sg12
g13
(g14
g15
NtRp2698
(dp2699
g18
I1
sg19
I0
sg20
I659
sg21
I0
sg22
I0
sg23
I533
sg24
I0
sbssg25
S'\xe0;\xed\xd7\xca\xd3HD9\xc6\xa1\x82j.\xe7\xce'
p2700
ssS'_usr_local_lib_python2_7_dist-packages_django_core_handlers_wsgi'
p2701
(dp2702
g6
(dp2703
g70
S'_usr_local_lib_python2_7_dist-packages_django_core_handlers_wsgi.html'
p2704
sg72
S'/usr/local/lib/python2.7/dist-packages/django/core/handlers/wsgi'
p2705
sg74
g13
(g14
g15
NtRp2706
(dp2707
g18
I1
sg19
I0
sg20
I161
sg21
I0
sg22
I0
sg23
I73
sg24
I0
sbssg25
S'\x08\x88y\xf5t\xf7d\x94\xfa\x86\xb0\xae\xa5,\x00\xb0'
p2708
ssS'_usr_local_lib_python2_7_dist-packages_django_template_loaders_app_directories'
p2709
(dp2710
g6
(dp2711
g70
S'_usr_local_lib_python2_7_dist-packages_django_template_loaders_app_directories.html'
p2712
sg72
S'/usr/local/lib/python2.7/dist-packages/django/template/loaders/app_directories'
p2713
sg74
g13
(g14
g15
NtRp2714
(dp2715
g18
I1
sg19
I0
sg20
I24
sg21
I0
sg22
I0
sg23
I2
sg24
I0
sbssg25
S'#\xb6\x12z\xf3\xc4\xa6\xd5\x90\x02\n\x91\xce\xb1\x16C'
p2716
ssS'_usr_local_lib_python2_7_dist-packages_django_db_migrations_migration'
p2717
(dp2718
g6
(dp2719
g8
S'_usr_local_lib_python2_7_dist-packages_django_db_migrations_migration.html'
p2720
sg10
S'/usr/local/lib/python2.7/dist-packages/django/db/migrations/migration'
p2721
sg12
g13
(g14
g15
NtRp2722
(dp2723
g18
I1
sg19
I0
sg20
I82
sg21
I0
sg22
I0
sg23
I32
sg24
I0
sbssg25
S'\xf9.\xfa\xf7\xea4\xff^\xb9l3\xd6^\x9dp\x1a'
p2724
ssS'_usr_local_lib_python2_7_dist-packages_django_contrib_sessions_models'
p2725
(dp2726
g6
(dp2727
g8
S'_usr_local_lib_python2_7_dist-packages_django_contrib_sessions_models.html'
p2728
sg10
S'/usr/local/lib/python2.7/dist-packages/django/contrib/sessions/models'
p2729
sg12
g13
(g14
g15
NtRp2730
(dp2731
g18
I1
sg19
I0
sg20
I29
sg21
I0
sg22
I0
sg23
I8
sg24
I0
sbssg25
S'X\x9e\xd9\x8f\xb0\x83\xc0\xed\xc5\x9eJ\x98\x1a\xfbP%'
p2732
ssS'_usr_local_lib_python2_7_dist-packages_six'
p2733
(dp2734
g6
(dp2735
g8
S'_usr_local_lib_python2_7_dist-packages_six.html'
p2736
sg10
S'/usr/local/lib/python2.7/dist-packages/six'
p2737
sg12
g13
(g14
g15
NtRp2738
(dp2739
g18
I1
sg19
I0
sg20
I444
sg21
I0
sg22
I0
sg23
I203
sg24
I0
sbssg25
S'i\xa8K\x83\xedO\xf5\x16\x00*\xf101\xc63\x91'
p2740
ssS'_usr_local_lib_python2_7_dist-packages_django_test_signals'
p2741
(dp2742
g6
(dp2743
g8
S'_usr_local_lib_python2_7_dist-packages_django_test_signals.html'
p2744
sg10
S'/usr/local/lib/python2.7/dist-packages/django/test/signals'
p2745
sg12
g13
(g14
g15
NtRp2746
(dp2747
g18
I1
sg19
I0
sg20
I96
sg21
I0
sg22
I0
sg23
I71
sg24
I0
sbssg25
S'\xf6\x19W\xd6"\x82u\xc48\x1a3\xd2\xe1\xec\xdf\xfc'
p2748
ssS'_usr_local_lib_python2_7_dist-packages_django_core_validators'
p2749
(dp2750
g6
(dp2751
g8
S'_usr_local_lib_python2_7_dist-packages_django_core_validators.html'
p2752
sg10
S'/usr/local/lib/python2.7/dist-packages/django/core/validators'
p2753
sg12
g13
(g14
g15
NtRp2754
(dp2755
g18
I1
sg19
I0
sg20
I194
sg21
I0
sg22
I0
sg23
I86
sg24
I0
sbssg25
S'\xd5\xe5{$7\xeaH\x85\x05\x15\xaa:/\xbf\xa4\xeb'
p2756
ssS'_usr_local_lib_python2_7_dist-packages_django_contrib_sites_requests'
p2757
(dp2758
g6
(dp2759
g8
S'_usr_local_lib_python2_7_dist-packages_django_contrib_sites_requests.html'
p2760
sg10
S'/usr/local/lib/python2.7/dist-packages/django/contrib/sites/requests'
p2761
sg12
g13
(g14
g15
NtRp2762
(dp2763
g18
I1
sg19
I0
sg20
I12
sg21
I0
sg22
I0
sg23
I4
sg24
I0
sbssg25
S'\xb0\xee.{\x9e\xdf\xf0\xb20\xc0\xda\xe0h\xe0N('
p2764
ssS'_usr_local_lib_python2_7_dist-packages_django_contrib_contenttypes_checks'
p2765
(dp2766
g6
(dp2767
g8
S'_usr_local_lib_python2_7_dist-packages_django_contrib_contenttypes_checks.html'
p2768
sg10
S'/usr/local/lib/python2.7/dist-packages/django/contrib/contenttypes/checks'
p2769
sg12
g13
(g14
g15
NtRp2770
(dp2771
g18
I1
sg19
I0
sg20
I10
sg21
I0
sg22
I0
sg23
I6
sg24
I0
sbssg25
S'\x8e\xd1dp\xc8=\xa0\x815\xb2\x87\xdb\xbe\xd7\x06t'
p2772
ssS'_usr_local_lib_python2_7_dist-packages_django_views_debug'
p2773
(dp2774
g6
(dp2775
g70
S'_usr_local_lib_python2_7_dist-packages_django_views_debug.html'
p2776
sg72
S'/usr/local/lib/python2.7/dist-packages/django/views/debug'
p2777
sg74
g13
(g14
g15
NtRp2778
(dp2779
g18
I1
sg19
I0
sg20
I330
sg21
I0
sg22
I0
sg23
I276
sg24
I0
sbssg25
S'\xb0\t\x90%\xa1i\x9c\x10\xf2\x93\xa8>\xe7SlU'
p2780
ssS'_usr_local_lib_python2_7_dist-packages_django_middleware_security'
p2781
(dp2782
g6
(dp2783
g8
S'_usr_local_lib_python2_7_dist-packages_django_middleware_security.html'
p2784
sg10
S'/usr/local/lib/python2.7/dist-packages/django/middleware/security'
p2785
sg12
g13
(g14
g15
NtRp2786
(dp2787
g18
I1
sg19
I0
sg20
I28
sg21
I0
sg22
I0
sg23
I8
sg24
I0
sbssg25
S'G/\xda\xce\xfcU\xd2\x17\xa6\xbc9\xe0\xd4\xc4\x8bM'
p2788
ssS'Election_urls'
p2789
(dp2790
g6
(dp2791
g8
S'Election_urls.html'
p2792
sg10
S'Election/urls'
p2793
sg12
g13
(g14
g15
NtRp2794
(dp2795
g18
I1
sg19
I0
sg20
I4
sg21
I0
sg22
I0
sg23
I0
sg24
I0
sbssg25
S'\xa5Q#\x1d\xd0?\\}\xc4\xa7U\xfa\x048h_'
p2796
ssS'_usr_local_lib_python2_7_dist-packages_django_core_cache___init__'
p2797
(dp2798
g6
(dp2799
g8
S'_usr_local_lib_python2_7_dist-packages_django_core_cache___init__.html'
p2800
sg10
S'/usr/local/lib/python2.7/dist-packages/django/core/cache/__init__'
p2801
sg12
g13
(g14
g15
NtRp2802
(dp2803
g18
I1
sg19
I0
sg20
I72
sg21
I0
sg22
I0
sg23
I23
sg24
I0
sbssg25
S'k\x8b\xa1\xcc\x85\x83\xe6\xfd\x00\x88\xa5\xc0\xe4\x89\xd4\x13'
p2804
ssS'_usr_local_lib_python2_7_dist-packages_django_contrib_admin_models'
p2805
(dp2806
g6
(dp2807
g8
S'_usr_local_lib_python2_7_dist-packages_django_contrib_admin_models.html'
p2808
sg10
S'/usr/local/lib/python2.7/dist-packages/django/contrib/admin/models'
p2809
sg12
g13
(g14
g15
NtRp2810
(dp2811
g18
I1
sg19
I0
sg20
I57
sg21
I0
sg22
I0
sg23
I21
sg24
I0
sbssg25
S'\x80\xba\x85\xean\xcc\x9c\xa2\x84\xf4\xd3\x02\xc5\x8c\xf2\xd2'
p2812
ssS'_usr_local_lib_python2_7_dist-packages_django_apps___init__'
p2813
(dp2814
g6
(dp2815
g8
S'_usr_local_lib_python2_7_dist-packages_django_apps___init__.html'
p2816
sg10
S'/usr/local/lib/python2.7/dist-packages/django/apps/__init__'
p2817
sg12
g13
(g14
g15
NtRp2818
(dp2819
g18
I1
sg19
I0
sg20
I2
sg21
I0
sg22
I0
sg23
I0
sg24
I0
sbssg25
S'\x0c%\xf7&\xe8\xc2\xf7\xc3\xbe\xae,\xc0\xc1?\x18g'
p2820
ssS'_usr_local_lib_python2_7_dist-packages_django_utils_datetime_safe'
p2821
(dp2822
g6
(dp2823
g8
S'_usr_local_lib_python2_7_dist-packages_django_utils_datetime_safe.html'
p2824
sg10
S'/usr/local/lib/python2.7/dist-packages/django/utils/datetime_safe'
p2825
sg12
g13
(g14
g15
NtRp2826
(dp2827
g18
I1
sg19
I0
sg20
I58
sg21
I0
sg22
I0
sg23
I42
sg24
I0
sbssg25
S'\xdb2\xd6|\xd2&\xa9D\x8b\xe2\x13\x99\xc8\xfe\xa58'
p2828
ssS'_usr_local_lib_python2_7_dist-packages_django_forms_utils'
p2829
(dp2830
g6
(dp2831
g8
S'_usr_local_lib_python2_7_dist-packages_django_forms_utils.html'
p2832
sg10
S'/usr/local/lib/python2.7/dist-packages/django/forms/utils'
p2833
sg12
g13
(g14
g15
NtRp2834
(dp2835
g18
I1
sg19
I0
sg20
I98
sg21
I0
sg22
I0
sg23
I58
sg24
I0
sbssg25
S'zM\xb6\xd0\xee\x04\xc0\xe1nG-\xd5\xb2\xd2\xd4\xc0'
p2836
ssS'_usr_local_lib_python2_7_dist-packages_MySQLdb_connections'
p2837
(dp2838
g6
(dp2839
g8
S'_usr_local_lib_python2_7_dist-packages_MySQLdb_connections.html'
p2840
sg10
S'/usr/local/lib/python2.7/dist-packages/MySQLdb/connections'
p2841
sg12
g13
(g14
g15
NtRp2842
(dp2843
g18
I1
sg19
I0
sg20
I149
sg21
I0
sg22
I0
sg23
I42
sg24
I0
sbssg25
S'\xd6\x18\xbe\xa9\xe2;m\x034\xce+g\x8b\xb0\t\xfd'
p2844
ssS'_usr_local_lib_python2_7_dist-packages_django_db_backends_mysql_creation'
p2845
(dp2846
g6
(dp2847
g8
S'_usr_local_lib_python2_7_dist-packages_django_db_backends_mysql_creation.html'
p2848
sg10
S'/usr/local/lib/python2.7/dist-packages/django/db/backends/mysql/creation'
p2849
sg12
g13
(g14
g15
NtRp2850
(dp2851
g18
I1
sg19
I0
sg20
I27
sg21
I0
sg22
I0
sg23
I17
sg24
I0
sbssg25
S'\xac\xb7\x1fS\xc5\xfch@\xe6\xfe}*A\x0epD'
p2852
ssS'_usr_local_lib_python2_7_dist-packages_django___init__'
p2853
(dp2854
g6
(dp2855
g8
S'_usr_local_lib_python2_7_dist-packages_django___init__.html'
p2856
sg10
S'/usr/local/lib/python2.7/dist-packages/django/__init__'
p2857
sg12
g13
(g14
g15
NtRp2858
(dp2859
g18
I1
sg19
I0
sg20
I9
sg21
I0
sg22
I0
sg23
I0
sg24
I0
sbssg25
S'\xbbp\xf4\x93\x12s\x074\x8a[F\x00\x9d\x93\xa2E'
p2860
sssS'version'
p2861
S'3.6'
p2862
sS'settings'
p2863
S'3\xcf\xa1\x19.\x88o$\x8cA\xde\xbd\xcd\x06\xa1\x0f'
p2864
sS'format'
p2865
I1
s.